

Microchip MPLAB XC8 Assembler V2.45 build 20230818022343 
                                                                                               Tue Mar 05 15:52:15 2024

Microchip MPLAB XC8 C Compiler v2.45 (Free license) build 20230818022343 Og1 
     1                           	processor	18F67K40
     2                           	fnconf	rparam,??,?,0
     3                           	pagewidth 120
     4                           	opt	flic
     5                           	psect	cinit,global,reloc=2,class=CODE,delta=1
     6                           	psect	bssCOMRAM,global,class=COMRAM,space=1,delta=1,lowdata,noexec
     7                           	psect	cstackCOMRAM,global,class=COMRAM,space=1,delta=1,lowdata,noexec
     8                           	psect	text0,global,reloc=2,class=CODE,delta=1
     9                           	psect	text1,global,reloc=2,class=CODE,delta=1
    10                           	psect	text2,global,reloc=2,class=CODE,delta=1,group=1
    11                           	psect	text3,global,reloc=2,class=CODE,delta=1
    12                           	psect	text4,global,reloc=2,class=CODE,delta=1
    13                           	psect	text5,global,reloc=2,class=CODE,delta=1
    14                           	psect	text6,global,reloc=2,class=CODE,delta=1
    15                           	psect	text7,global,reloc=2,class=CODE,delta=1
    16                           	psect	text8,global,reloc=2,class=CODE,delta=1
    17                           	psect	text9,global,reloc=2,class=CODE,delta=1
    18                           	psect	text10,global,reloc=2,class=CODE,delta=1
    19                           	psect	text11,global,reloc=2,class=CODE,delta=1
    20                           	psect	text12,global,reloc=2,class=CODE,delta=1
    21                           	psect	text13,global,reloc=2,class=CODE,delta=1
    22                           	psect	text14,global,reloc=2,class=CODE,delta=1
    23                           	psect	text15,global,reloc=2,class=CODE,delta=1
    24                           	psect	intcode,global,reloc=2,class=CODE,delta=1
    25                           	psect	text17,global,reloc=2,class=CODE,delta=1
    26                           	psect	text18,global,reloc=2,class=CODE,delta=1
    27                           	psect	text19,global,reloc=2,class=CODE,delta=1
    28                           	psect	text20,global,reloc=2,class=CODE,delta=1
    29                           	psect	text21,global,reloc=2,class=CODE,delta=1
    30                           	psect	text22,global,reloc=2,class=CODE,delta=1
    31                           	psect	text23,global,reloc=2,class=CODE,delta=1
    32                           	psect	text24,global,reloc=2,class=CODE,delta=1
    33                           	psect	text25,global,reloc=2,class=CODE,delta=1
    34                           	psect	text26,global,reloc=2,class=CODE,delta=1
    35                           	psect	text27,global,reloc=2,class=CODE,delta=1
    36                           	psect	text28,global,reloc=2,class=CODE,delta=1
    37                           	psect	smallconst,global,reloc=2,class=SMALLCONST,delta=1,noexec
    38                           	psect	intsave_regs,global,class=BIGRAM,space=1,delta=1,noexec
    39                           	psect	rparam,global,class=COMRAM,space=1,delta=1,noexec
    40                           	psect	temp,global,ovrld,common,class=COMRAM,space=1,delta=1
    41                           	psect	config,global,abs,ovrld,class=CONFIG,space=4,delta=1,noexec
    42   000000                     
    43                           ; Generated 21/07/2023 GMT
    44                           ; 
    45                           ; Copyright © 2023, Microchip Technology Inc. and its subsidiaries ("Microchip")
    46                           ; All rights reserved.
    47                           ; 
    48                           ; This software is developed by Microchip Technology Inc. and its subsidiaries ("Microch
      +                          ip").
    49                           ; 
    50                           ; Redistribution and use in source and binary forms, with or without modification, are
    51                           ; permitted provided that the following conditions are met:
    52                           ; 
    53                           ;     1. Redistributions of source code must retain the above copyright notice, this lis
      +                          t of
    54                           ;        conditions and the following disclaimer.
    55                           ; 
    56                           ;     2. Redistributions in binary form must reproduce the above copyright notice, this 
      +                          list
    57                           ;        of conditions and the following disclaimer in the documentation and/or other
    58                           ;        materials provided with the distribution. Publication is not required when
    59                           ;        this file is used in an embedded application.
    60                           ; 
    61                           ;     3. Microchip's name may not be used to endorse or promote products derived from th
      +                          is
    62                           ;        software without specific prior written permission.
    63                           ; 
    64                           ; THIS SOFTWARE IS PROVIDED BY MICROCHIP "AS IS" AND ANY EXPRESS OR IMPLIED WARRANTIES,
    65                           ; INCLUDING, BUT NOT LIMITED TO, THE IMPLIED WARRANTIES OF MERCHANTABILITY AND FITNESS F
      +                          OR
    66                           ; PURPOSE ARE DISCLAIMED.  IN NO EVENT SHALL MICROCHIP BE LIABLE FOR ANY DIRECT, INDIREC
      +                          T,
    67                           ; INCIDENTAL, SPECIAL, EXEMPLARY, OR CONSEQUENTIAL DAMAGES (INCLUDING BUT NOT LIMITED TO
    68                           ; PROCUREMENT OF SUBSTITUTE GOODS OR SERVICES; LOSS OF USE, DATA OR PROFITS; OR BUSINESS
    69                           ; INTERRUPTION) HOWSOEVER CAUSED AND ON ANY THEORY OF LIABILITY, WHETHER IN CONTRACT, ST
      +                          RICT
    70                           ; LIABILITY, OR TORT (INCLUDING NEGLIGENCE OR OTHERWISE) ARISING IN ANY WAY OUT OF THE U
      +                          SE OF
    71                           ; THIS SOFTWARE, EVEN IF ADVISED OF THE POSSIBILITY OF SUCH DAMAGE.
    72                           ; 
    73                           ; 
    74                           ; Code-generator required, PIC18F67K40 Definitions
    75                           ; 
    76                           ; SFR Addresses
    77   000000                     _SSP2CON2	set	3802
    78   000000                     _INT0PPS	set	3568
    79   000000                     _SSP2CLKPPS	set	3612
    80   000000                     _SSP2DATPPS	set	3613
    81   000000                     _ANSELDbits	set	3751
    82   000000                     _SSP2ADD	set	3798
    83   000000                     _SSP2CON1bits	set	3801
    84   000000                     _SSP2CON2bits	set	3802
    85   000000                     _LATAbits	set	3961
    86   000000                     _LATEbits	set	3965
    87   000000                     _LATGbits	set	3967
    88   000000                     _TRISAbits	set	3969
    89   000000                     _LATHbits	set	3968
    90   000000                     _TRISDbits	set	3972
    91   000000                     _LATDbits	set	3964
    92   000000                     _SSP2STAT	set	3800
    93   000000                     _TRISEbits	set	3973
    94   000000                     _TRISGbits	set	3975
    95   000000                     _TRISHbits	set	3976
    96   000000                     _SSP2BUF	set	3797
    97   000000                     _IPR0bits	set	3615
    98   000000                     _PIE0bits	set	3625
    99   000000                     _RD5PPS	set	3695
   100   000000                     _ANSELBbits	set	3738
   101   000000                     _RD6PPS	set	3696
   102   000000                     _TMR0L	set	4051
   103   000000                     _TMR0H	set	4052
   104   000000                     _T0CON0bits	set	4053
   105   000000                     _T0CON1bits	set	4054
   106   000000                     _INTCONbits	set	4082
   107   000000                     _PIR0bits	set	3635
   108                           
   109                           ; #config settings
   110                           
   111                           	psect	cinit
   112   001614                     __pcinit:
   113                           	callstack 0
   114   001614                     start_initialization:
   115                           	callstack 0
   116   001614                     __initialization:
   117                           	callstack 0
   118                           
   119                           ; Clear objects allocated to COMRAM (35 bytes)
   120   001614  EE00  F02C         	lfsr	0,__pbssCOMRAM
   121   001618  0E23               	movlw	35
   122   00161A                     clear_0:
   123   00161A  6AEE               	clrf	postinc0,c
   124   00161C  06E8               	decf	wreg,f,c
   125   00161E  E1FD               	bnz	clear_0
   126   001620                     end_of_initialization:
   127                           	callstack 0
   128   001620                     __end_of__initialization:
   129                           	callstack 0
   130   001620  904F               	bcf	int$flags,0,c	;clear compiler interrupt flag (level 1)
   131   001622  924F               	bcf	int$flags,1,c	;clear compiler interrupt flag (level 2)
   132   001624  0100               	movlb	0
   133   001626  EF01  F007         	goto	_main	;jump to C main() function
   134                           
   135                           	psect	bssCOMRAM
   136   00002C                     __pbssCOMRAM:
   137                           	callstack 0
   138   00002C                     _z:
   139                           	callstack 0
   140   00002C                     	ds	2
   141   00002E                     _y:
   142                           	callstack 0
   143   00002E                     	ds	2
   144   000030                     _x:
   145                           	callstack 0
   146   000030                     	ds	2
   147   000032                     _w:
   148                           	callstack 0
   149   000032                     	ds	2
   150   000034                     _colourCode:
   151                           	callstack 0
   152   000034                     	ds	2
   153   000036                     _increment:
   154                           	callstack 0
   155   000036                     	ds	2
   156   000038                     _clear:
   157                           	callstack 0
   158   000038                     	ds	2
   159   00003A                     _blue:
   160                           	callstack 0
   161   00003A                     	ds	2
   162   00003C                     _green:
   163                           	callstack 0
   164   00003C                     	ds	2
   165   00003E                     _red:
   166                           	callstack 0
   167   00003E                     	ds	2
   168   000040                     _wall_detected:
   169                           	callstack 0
   170   000040                     	ds	1
   171   000041                     _RGBC:
   172                           	callstack 0
   173   000041                     	ds	8
   174   000049                     _normRGB:
   175                           	callstack 0
   176   000049                     	ds	6
   177                           
   178                           	psect	cstackCOMRAM
   179   000001                     __pcstackCOMRAM:
   180                           	callstack 0
   181   000001                     ??i2_I2C_2_Master_Idle:
   182   000001                     
   183                           ; 1 bytes @ 0x0
   184   000001                     	ds	1
   185   000002                     ??_I2C_2_Master_Read:
   186   000002                     i2I2C_2_Master_Write@data_byte:
   187                           	callstack 0
   188                           
   189                           ; 1 bytes @ 0x1
   190   000002                     	ds	1
   191   000003                     I2C_2_Master_Read@ack:
   192                           	callstack 0
   193                           
   194                           ; 1 bytes @ 0x2
   195   000003                     	ds	1
   196   000004                     I2C_2_Master_Read@tmp:
   197                           	callstack 0
   198                           
   199                           ; 1 bytes @ 0x3
   200   000004                     	ds	1
   201   000005                     ?_readRedColor:
   202                           	callstack 0
   203   000005                     ?_readGreenColor:
   204                           	callstack 0
   205   000005                     ?_readBlueColor:
   206                           	callstack 0
   207   000005                     ?_readClearColor:
   208                           	callstack 0
   209                           
   210                           ; 2 bytes @ 0x4
   211   000005                     	ds	2
   212   000007                     ??_readRedColor:
   213   000007                     ??_readGreenColor:
   214   000007                     ??_readBlueColor:
   215   000007                     ??_readClearColor:
   216                           
   217                           ; 1 bytes @ 0x6
   218   000007                     	ds	3
   219   00000A                     readRedColor@tmp:
   220                           	callstack 0
   221   00000A                     readGreenColor@tmp:
   222                           	callstack 0
   223   00000A                     readBlueColor@tmp:
   224                           	callstack 0
   225   00000A                     readClearColor@tmp:
   226                           	callstack 0
   227                           
   228                           ; 2 bytes @ 0x9
   229   00000A                     	ds	2
   230   00000C                     ??_High_ISR:
   231                           
   232                           ; 1 bytes @ 0xB
   233   00000C                     	ds	2
   234   00000E                     ??_I2C_2_Master_Idle:
   235   00000E                     ?_decideColor:
   236                           	callstack 0
   237   00000E                     ?___lwdiv:
   238                           	callstack 0
   239   00000E                     decideColor@normRGB:
   240                           	callstack 0
   241   00000E                     ___lwdiv@dividend:
   242                           	callstack 0
   243                           
   244                           ; 2 bytes @ 0xD
   245   00000E                     	ds	1
   246   00000F                     I2C_2_Master_Write@data_byte:
   247                           	callstack 0
   248                           
   249                           ; 1 bytes @ 0xE
   250   00000F                     	ds	1
   251   000010                     color_writetoaddr@value:
   252                           	callstack 0
   253   000010                     ___lwdiv@divisor:
   254                           	callstack 0
   255                           
   256                           ; 2 bytes @ 0xF
   257   000010                     	ds	1
   258   000011                     color_writetoaddr@address:
   259                           	callstack 0
   260                           
   261                           ; 1 bytes @ 0x10
   262   000011                     	ds	1
   263   000012                     ??_color_click_init:
   264   000012                     ___lwdiv@quotient:
   265                           	callstack 0
   266                           
   267                           ; 2 bytes @ 0x11
   268   000012                     	ds	2
   269   000014                     ___lwdiv@counter:
   270                           	callstack 0
   271                           
   272                           ; 1 bytes @ 0x13
   273   000014                     	ds	1
   274   000015                     normalizeColors@RGBC:
   275                           	callstack 0
   276                           
   277                           ; 1 bytes @ 0x14
   278   000015                     	ds	1
   279   000016                     normalizeColors@normRGB:
   280                           	callstack 0
   281                           
   282                           ; 1 bytes @ 0x15
   283   000016                     	ds	1
   284   000017                     ??_normalizeColors:
   285                           
   286                           ; 1 bytes @ 0x16
   287   000017                     	ds	8
   288   00001F                     normalizeColors@sum:
   289                           	callstack 0
   290                           
   291                           ; 2 bytes @ 0x1E
   292   00001F                     	ds	2
   293   000021                     _normalizeColors$1890:
   294                           	callstack 0
   295                           
   296                           ; 2 bytes @ 0x20
   297   000021                     	ds	2
   298   000023                     ??_main:
   299                           
   300                           ; 1 bytes @ 0x22
   301   000023                     	ds	2
   302   000025                     main@i:
   303                           	callstack 0
   304                           
   305                           ; 1 bytes @ 0x24
   306   000025                     	ds	1
   307   000026                     main@i_705:
   308                           	callstack 0
   309                           
   310                           ; 1 bytes @ 0x25
   311   000026                     	ds	1
   312   000027                     main@i_706:
   313                           	callstack 0
   314                           
   315                           ; 1 bytes @ 0x26
   316   000027                     	ds	1
   317   000028                     main@i_707:
   318                           	callstack 0
   319                           
   320                           ; 1 bytes @ 0x27
   321   000028                     	ds	1
   322   000029                     main@i_708:
   323                           	callstack 0
   324                           
   325                           ; 1 bytes @ 0x28
   326   000029                     	ds	1
   327   00002A                     main@colourCode:
   328                           	callstack 0
   329                           
   330                           ; 2 bytes @ 0x29
   331   00002A                     	ds	2
   332                           
   333 ;;
   334 ;;Main: autosize = 0, tempsize = 2, incstack = 0, save=0
   335 ;;
   336 ;; *************** function _main *****************
   337 ;; Defined at:
   338 ;;		line 32 in file "main.c"
   339 ;; Parameters:    Size  Location     Type
   340 ;;		None
   341 ;; Auto vars:     Size  Location     Type
   342 ;;  i               1   40[COMRAM] unsigned char 
   343 ;;  i               1   39[COMRAM] unsigned char 
   344 ;;  i               1   38[COMRAM] unsigned char 
   345 ;;  i               1   37[COMRAM] unsigned char 
   346 ;;  i               1   36[COMRAM] unsigned char 
   347 ;;  colourCode      2   41[COMRAM] unsigned int 
   348 ;; Return value:  Size  Location     Type
   349 ;;                  1    wreg      void 
   350 ;; Registers used:
   351 ;;		wreg, fsr2l, fsr2h, status,2, status,0, cstack
   352 ;; Tracked objects:
   353 ;;		On entry : 0/0
   354 ;;		On exit  : 0/0
   355 ;;		Unchanged: 0/0
   356 ;; Data sizes:     COMRAM   BANK0   BANK1   BANK2   BANK3   BANK4   BANK5   BANK6   BANK7   BANK8   BANK9  BANK10  BANK1
      +1  BANK12  BANK13
   357 ;;      Params:         0       0       0       0       0       0       0       0       0       0       0       0       
      +0       0       0
   358 ;;      Locals:         7       0       0       0       0       0       0       0       0       0       0       0       
      +0       0       0
   359 ;;      Temps:          2       0       0       0       0       0       0       0       0       0       0       0       
      +0       0       0
   360 ;;      Totals:         9       0       0       0       0       0       0       0       0       0       0       0       
      +0       0       0
   361 ;;Total ram usage:        9 bytes
   362 ;; Hardware stack levels required when called: 8
   363 ;; This function calls:
   364 ;;		_LEDturnON
   365 ;;		_Timer0_init
   366 ;;		_color_click_init
   367 ;;		_decideColor
   368 ;;		_init_buttons_LED
   369 ;;		_interrupts_init
   370 ;;		_normalizeColors
   371 ;; This function is called by:
   372 ;;		Startup code after reset
   373 ;; This function uses a non-reentrant model
   374 ;;
   375                           
   376                           	psect	text0
   377   000E02                     __ptext0:
   378                           	callstack 0
   379   000E02                     _main:
   380                           	callstack 23
   381   000E02                     
   382                           ;main.c: 33:     color_click_init();
   383   000E02  EC90  F00A         	call	_color_click_init	;wreg free
   384   000E06                     
   385                           ;main.c: 34:     init_buttons_LED();
   386   000E06  EC2B  F00B         	call	_init_buttons_LED	;wreg free
   387   000E0A                     
   388                           ;main.c: 35:     TRISDbits.TRISD7 = 0;
   389   000E0A  9E84               	bcf	132,7,c	;volatile
   390   000E0C                     
   391                           ;main.c: 36:     LATDbits.LATD7 = 0;
   392   000E0C  9E7C               	bcf	124,7,c	;volatile
   393   000E0E                     
   394                           ;main.c: 37:     interrupts_init();
   395   000E0E  ECA7  F009         	call	_interrupts_init	;wreg free
   396   000E12                     
   397                           ;main.c: 38:     Timer0_init();
   398   000E12  ECFC  F00A         	call	_Timer0_init	;wreg free
   399   000E16                     
   400                           ;main.c: 40:     LEDturnON();
   401   000E16  EC4B  F00B         	call	_LEDturnON	;wreg free
   402   000E1A                     
   403                           ;main.c: 41:     _delay((unsigned long)((1000)*(64000000/4000.0)));
   404   000E1A  0E52               	movlw	82
   405   000E1C  6E24               	movwf	(??_main+1)^0,c
   406   000E1E  0E2B               	movlw	43
   407   000E20  6E23               	movwf	??_main^0,c
   408   000E22  0E00               	movlw	0
   409   000E24                     u597:
   410   000E24  2EE8               	decfsz	wreg,f,c
   411   000E26  D7FE               	bra	u597
   412   000E28  2E23               	decfsz	??_main^0,f,c
   413   000E2A  D7FC               	bra	u597
   414   000E2C  2E24               	decfsz	(??_main+1)^0,f,c
   415   000E2E  D7FA               	bra	u597
   416   000E30  D000               	nop2	
   417   000E32                     
   418                           ;main.c: 43:     LATDbits.LATD7 = 1;
   419   000E32  8E7C               	bsf	124,7,c	;volatile
   420   000E34                     l1653:
   421                           
   422                           ;main.c: 52:         if (wall_detected) {
   423   000E34  5040               	movf	_wall_detected^0,w,c
   424   000E36  B4D8               	btfsc	status,2,c
   425   000E38  EF20  F007         	goto	u451
   426   000E3C  EF22  F007         	goto	u450
   427   000E40                     u451:
   428   000E40  EF1A  F007         	goto	l1653
   429   000E44                     u450:
   430   000E44                     
   431                           ;main.c: 53:             LATDbits.LATD7 = 0;
   432   000E44  9E7C               	bcf	124,7,c	;volatile
   433   000E46                     
   434                           ;main.c: 54:             normalizeColors(&RGBC, &normRGB);
   435   000E46  0E41               	movlw	low _RGBC
   436   000E48  6E15               	movwf	normalizeColors@RGBC^0,c
   437   000E4A  0E49               	movlw	low _normRGB
   438   000E4C  6E16               	movwf	normalizeColors@normRGB^0,c
   439   000E4E  EC52  F008         	call	_normalizeColors	;wreg free
   440                           
   441                           ;main.c: 57:             unsigned int colourCode = decideColor(&normRGB);
   442   000E52  0E49               	movlw	low _normRGB
   443   000E54  6E0E               	movwf	decideColor@normRGB^0,c
   444   000E56  ECE6  F008         	call	_decideColor	;wreg free
   445   000E5A  C00E  F02A         	movff	?_decideColor,main@colourCode
   446   000E5E  C00F  F02B         	movff	?_decideColor+1,main@colourCode+1
   447   000E62                     
   448                           ;main.c: 59:             if (colourCode == 1) {
   449   000E62  042A               	decf	main@colourCode^0,w,c
   450   000E64  102B               	iorwf	(main@colourCode+1)^0,w,c
   451   000E66  A4D8               	btfss	status,2,c
   452   000E68  EF38  F007         	goto	u461
   453   000E6C  EF3A  F007         	goto	u460
   454   000E70                     u461:
   455   000E70  EF5F  F007         	goto	l1675
   456   000E74                     u460:
   457   000E74                     
   458                           ;main.c: 60:                 TRISHbits.TRISH3 = 0;
   459   000E74  9688               	bcf	136,3,c	;volatile
   460   000E76                     
   461                           ;main.c: 61:                 for (char i=0; i<1; i++) {
   462   000E76  0E00               	movlw	0
   463   000E78  6E25               	movwf	main@i^0,c
   464   000E7A                     l174:
   465                           
   466                           ;main.c: 62:                     LATHbits.LATH3 = 1;
   467   000E7A  8680               	bsf	128,3,c	;volatile
   468   000E7C                     
   469                           ;main.c: 63:                     _delay((unsigned long)((150)*(64000000/4000.0)));
   470   000E7C  0E0D               	movlw	13
   471   000E7E  6E24               	movwf	(??_main+1)^0,c
   472   000E80  0E2D               	movlw	45
   473   000E82  6E23               	movwf	??_main^0,c
   474   000E84  0ED8               	movlw	216
   475   000E86                     u607:
   476   000E86  2EE8               	decfsz	wreg,f,c
   477   000E88  D7FE               	bra	u607
   478   000E8A  2E23               	decfsz	??_main^0,f,c
   479   000E8C  D7FC               	bra	u607
   480   000E8E  2E24               	decfsz	(??_main+1)^0,f,c
   481   000E90  D7FA               	bra	u607
   482   000E92                     
   483                           ;main.c: 64:                     LATHbits.LATH3 = 0;
   484   000E92  9680               	bcf	128,3,c	;volatile
   485                           
   486                           ;main.c: 65:                     _delay((unsigned long)((100)*(64000000/4000.0)));
   487   000E94  0E09               	movlw	9
   488   000E96  6E24               	movwf	(??_main+1)^0,c
   489   000E98  0E1E               	movlw	30
   490   000E9A  6E23               	movwf	??_main^0,c
   491   000E9C  0EE4               	movlw	228
   492   000E9E                     u617:
   493   000E9E  2EE8               	decfsz	wreg,f,c
   494   000EA0  D7FE               	bra	u617
   495   000EA2  2E23               	decfsz	??_main^0,f,c
   496   000EA4  D7FC               	bra	u617
   497   000EA6  2E24               	decfsz	(??_main+1)^0,f,c
   498   000EA8  D7FA               	bra	u617
   499   000EAA  D000               	nop2	
   500   000EAC                     
   501                           ;main.c: 66:                 }
   502   000EAC  2A25               	incf	main@i^0,f,c
   503   000EAE  5025               	movf	main@i^0,w,c
   504   000EB0  B4D8               	btfsc	status,2,c
   505   000EB2  EF5D  F007         	goto	u471
   506   000EB6  EF5F  F007         	goto	u470
   507   000EBA                     u471:
   508   000EBA  EF3D  F007         	goto	l174
   509   000EBE                     u470:
   510   000EBE                     l1675:
   511                           
   512                           ;main.c: 69:             if (colourCode == 2) {
   513   000EBE  0E02               	movlw	2
   514   000EC0  182A               	xorwf	main@colourCode^0,w,c
   515   000EC2  102B               	iorwf	(main@colourCode+1)^0,w,c
   516   000EC4  A4D8               	btfss	status,2,c
   517   000EC6  EF67  F007         	goto	u481
   518   000ECA  EF69  F007         	goto	u480
   519   000ECE                     u481:
   520   000ECE  EF8E  F007         	goto	l1691
   521   000ED2                     u480:
   522   000ED2                     
   523                           ;main.c: 70:                 TRISHbits.TRISH3 = 0;
   524   000ED2  9688               	bcf	136,3,c	;volatile
   525   000ED4                     
   526                           ;main.c: 71:                 for (char i=0; i<2; i++) {
   527   000ED4  0E00               	movlw	0
   528   000ED6  6E26               	movwf	main@i_705^0,c
   529   000ED8                     l177:
   530                           
   531                           ;main.c: 72:                     LATHbits.LATH3 = 1;
   532   000ED8  8680               	bsf	128,3,c	;volatile
   533   000EDA                     
   534                           ;main.c: 73:                     _delay((unsigned long)((150)*(64000000/4000.0)));
   535   000EDA  0E0D               	movlw	13
   536   000EDC  6E24               	movwf	(??_main+1)^0,c
   537   000EDE  0E2D               	movlw	45
   538   000EE0  6E23               	movwf	??_main^0,c
   539   000EE2  0ED8               	movlw	216
   540   000EE4                     u627:
   541   000EE4  2EE8               	decfsz	wreg,f,c
   542   000EE6  D7FE               	bra	u627
   543   000EE8  2E23               	decfsz	??_main^0,f,c
   544   000EEA  D7FC               	bra	u627
   545   000EEC  2E24               	decfsz	(??_main+1)^0,f,c
   546   000EEE  D7FA               	bra	u627
   547   000EF0                     
   548                           ;main.c: 74:                     LATHbits.LATH3 = 0;
   549   000EF0  9680               	bcf	128,3,c	;volatile
   550                           
   551                           ;main.c: 75:                     _delay((unsigned long)((100)*(64000000/4000.0)));
   552   000EF2  0E09               	movlw	9
   553   000EF4  6E24               	movwf	(??_main+1)^0,c
   554   000EF6  0E1E               	movlw	30
   555   000EF8  6E23               	movwf	??_main^0,c
   556   000EFA  0EE4               	movlw	228
   557   000EFC                     u637:
   558   000EFC  2EE8               	decfsz	wreg,f,c
   559   000EFE  D7FE               	bra	u637
   560   000F00  2E23               	decfsz	??_main^0,f,c
   561   000F02  D7FC               	bra	u637
   562   000F04  2E24               	decfsz	(??_main+1)^0,f,c
   563   000F06  D7FA               	bra	u637
   564   000F08  D000               	nop2	
   565   000F0A                     
   566                           ;main.c: 76:                 }
   567   000F0A  2A26               	incf	main@i_705^0,f,c
   568   000F0C  0E01               	movlw	1
   569   000F0E  6426               	cpfsgt	main@i_705^0,c
   570   000F10  EF8C  F007         	goto	u491
   571   000F14  EF8E  F007         	goto	u490
   572   000F18                     u491:
   573   000F18  EF6C  F007         	goto	l177
   574   000F1C                     u490:
   575   000F1C                     l1691:
   576                           
   577                           ;main.c: 79:             if (colourCode == 3) {
   578   000F1C  0E03               	movlw	3
   579   000F1E  182A               	xorwf	main@colourCode^0,w,c
   580   000F20  102B               	iorwf	(main@colourCode+1)^0,w,c
   581   000F22  A4D8               	btfss	status,2,c
   582   000F24  EF96  F007         	goto	u501
   583   000F28  EF98  F007         	goto	u500
   584   000F2C                     u501:
   585   000F2C  EFBD  F007         	goto	l1707
   586   000F30                     u500:
   587   000F30                     
   588                           ;main.c: 80:                 TRISHbits.TRISH3 = 0;
   589   000F30  9688               	bcf	136,3,c	;volatile
   590   000F32                     
   591                           ;main.c: 81:                 for (char i=0; i<3; i++) {
   592   000F32  0E00               	movlw	0
   593   000F34  6E27               	movwf	main@i_706^0,c
   594   000F36                     l180:
   595                           
   596                           ;main.c: 82:                     LATHbits.LATH3 = 1;
   597   000F36  8680               	bsf	128,3,c	;volatile
   598   000F38                     
   599                           ;main.c: 83:                     _delay((unsigned long)((150)*(64000000/4000.0)));
   600   000F38  0E0D               	movlw	13
   601   000F3A  6E24               	movwf	(??_main+1)^0,c
   602   000F3C  0E2D               	movlw	45
   603   000F3E  6E23               	movwf	??_main^0,c
   604   000F40  0ED8               	movlw	216
   605   000F42                     u647:
   606   000F42  2EE8               	decfsz	wreg,f,c
   607   000F44  D7FE               	bra	u647
   608   000F46  2E23               	decfsz	??_main^0,f,c
   609   000F48  D7FC               	bra	u647
   610   000F4A  2E24               	decfsz	(??_main+1)^0,f,c
   611   000F4C  D7FA               	bra	u647
   612   000F4E                     
   613                           ;main.c: 84:                     LATHbits.LATH3 = 0;
   614   000F4E  9680               	bcf	128,3,c	;volatile
   615                           
   616                           ;main.c: 85:                     _delay((unsigned long)((100)*(64000000/4000.0)));
   617   000F50  0E09               	movlw	9
   618   000F52  6E24               	movwf	(??_main+1)^0,c
   619   000F54  0E1E               	movlw	30
   620   000F56  6E23               	movwf	??_main^0,c
   621   000F58  0EE4               	movlw	228
   622   000F5A                     u657:
   623   000F5A  2EE8               	decfsz	wreg,f,c
   624   000F5C  D7FE               	bra	u657
   625   000F5E  2E23               	decfsz	??_main^0,f,c
   626   000F60  D7FC               	bra	u657
   627   000F62  2E24               	decfsz	(??_main+1)^0,f,c
   628   000F64  D7FA               	bra	u657
   629   000F66  D000               	nop2	
   630   000F68                     
   631                           ;main.c: 86:                 }
   632   000F68  2A27               	incf	main@i_706^0,f,c
   633   000F6A  0E02               	movlw	2
   634   000F6C  6427               	cpfsgt	main@i_706^0,c
   635   000F6E  EFBB  F007         	goto	u511
   636   000F72  EFBD  F007         	goto	u510
   637   000F76                     u511:
   638   000F76  EF9B  F007         	goto	l180
   639   000F7A                     u510:
   640   000F7A                     l1707:
   641                           
   642                           ;main.c: 89:             if (colourCode == 4) {
   643   000F7A  0E04               	movlw	4
   644   000F7C  182A               	xorwf	main@colourCode^0,w,c
   645   000F7E  102B               	iorwf	(main@colourCode+1)^0,w,c
   646   000F80  A4D8               	btfss	status,2,c
   647   000F82  EFC5  F007         	goto	u521
   648   000F86  EFC7  F007         	goto	u520
   649   000F8A                     u521:
   650   000F8A  EF03  F008         	goto	l1727
   651   000F8E                     u520:
   652   000F8E                     
   653                           ;main.c: 90:                 TRISHbits.TRISH3 = 0;
   654   000F8E  9688               	bcf	136,3,c	;volatile
   655   000F90                     
   656                           ;main.c: 91:                 for (char i=0; i<2; i++) {
   657   000F90  0E00               	movlw	0
   658   000F92  6E28               	movwf	main@i_707^0,c
   659   000F94                     l183:
   660                           
   661                           ;main.c: 92:                     LATHbits.LATH3 = 1;
   662   000F94  8680               	bsf	128,3,c	;volatile
   663   000F96                     
   664                           ;main.c: 93:                     _delay((unsigned long)((150)*(64000000/4000.0)));
   665   000F96  0E0D               	movlw	13
   666   000F98  6E24               	movwf	(??_main+1)^0,c
   667   000F9A  0E2D               	movlw	45
   668   000F9C  6E23               	movwf	??_main^0,c
   669   000F9E  0ED8               	movlw	216
   670   000FA0                     u667:
   671   000FA0  2EE8               	decfsz	wreg,f,c
   672   000FA2  D7FE               	bra	u667
   673   000FA4  2E23               	decfsz	??_main^0,f,c
   674   000FA6  D7FC               	bra	u667
   675   000FA8  2E24               	decfsz	(??_main+1)^0,f,c
   676   000FAA  D7FA               	bra	u667
   677   000FAC                     
   678                           ;main.c: 94:                     LATHbits.LATH3 = 0;
   679   000FAC  9680               	bcf	128,3,c	;volatile
   680                           
   681                           ;main.c: 95:                     _delay((unsigned long)((150)*(64000000/4000.0)));
   682   000FAE  0E0D               	movlw	13
   683   000FB0  6E24               	movwf	(??_main+1)^0,c
   684   000FB2  0E2D               	movlw	45
   685   000FB4  6E23               	movwf	??_main^0,c
   686   000FB6  0ED8               	movlw	216
   687   000FB8                     u677:
   688   000FB8  2EE8               	decfsz	wreg,f,c
   689   000FBA  D7FE               	bra	u677
   690   000FBC  2E23               	decfsz	??_main^0,f,c
   691   000FBE  D7FC               	bra	u677
   692   000FC0  2E24               	decfsz	(??_main+1)^0,f,c
   693   000FC2  D7FA               	bra	u677
   694   000FC4                     
   695                           ;main.c: 96:                 }
   696   000FC4  2A28               	incf	main@i_707^0,f,c
   697   000FC6  0E01               	movlw	1
   698   000FC8  6428               	cpfsgt	main@i_707^0,c
   699   000FCA  EFE9  F007         	goto	u531
   700   000FCE  EFEB  F007         	goto	u530
   701   000FD2                     u531:
   702   000FD2  EFCA  F007         	goto	l183
   703   000FD6                     u530:
   704   000FD6                     
   705                           ;main.c: 97:                 LATDbits.LATD7 = 1;
   706   000FD6  8E7C               	bsf	124,7,c	;volatile
   707   000FD8                     
   708                           ;main.c: 98:                 _delay((unsigned long)((150)*(64000000/4000.0)));
   709   000FD8  0E0D               	movlw	13
   710   000FDA  6E24               	movwf	(??_main+1)^0,c
   711   000FDC  0E2D               	movlw	45
   712   000FDE  6E23               	movwf	??_main^0,c
   713   000FE0  0ED8               	movlw	216
   714   000FE2                     u687:
   715   000FE2  2EE8               	decfsz	wreg,f,c
   716   000FE4  D7FE               	bra	u687
   717   000FE6  2E23               	decfsz	??_main^0,f,c
   718   000FE8  D7FC               	bra	u687
   719   000FEA  2E24               	decfsz	(??_main+1)^0,f,c
   720   000FEC  D7FA               	bra	u687
   721   000FEE                     
   722                           ;main.c: 99:                 LATDbits.LATD7 = 0;
   723   000FEE  9E7C               	bcf	124,7,c	;volatile
   724                           
   725                           ;main.c: 100:                 _delay((unsigned long)((150)*(64000000/4000.0)));
   726   000FF0  0E0D               	movlw	13
   727   000FF2  6E24               	movwf	(??_main+1)^0,c
   728   000FF4  0E2D               	movlw	45
   729   000FF6  6E23               	movwf	??_main^0,c
   730   000FF8  0ED8               	movlw	216
   731   000FFA                     u697:
   732   000FFA  2EE8               	decfsz	wreg,f,c
   733   000FFC  D7FE               	bra	u697
   734   000FFE  2E23               	decfsz	??_main^0,f,c
   735   001000  D7FC               	bra	u697
   736   001002  2E24               	decfsz	(??_main+1)^0,f,c
   737   001004  D7FA               	bra	u697
   738   001006                     l1727:
   739                           
   740                           ;main.c: 103:             if (colourCode == 6) {
   741   001006  0E06               	movlw	6
   742   001008  182A               	xorwf	main@colourCode^0,w,c
   743   00100A  102B               	iorwf	(main@colourCode+1)^0,w,c
   744   00100C  A4D8               	btfss	status,2,c
   745   00100E  EF0B  F008         	goto	u541
   746   001012  EF0D  F008         	goto	u540
   747   001016                     u541:
   748   001016  EF49  F008         	goto	l1747
   749   00101A                     u540:
   750   00101A                     
   751                           ;main.c: 104:                 TRISHbits.TRISH3 = 0;
   752   00101A  9688               	bcf	136,3,c	;volatile
   753   00101C                     
   754                           ;main.c: 105:                 for (char i=0; i<3; i++) {
   755   00101C  0E00               	movlw	0
   756   00101E  6E29               	movwf	main@i_708^0,c
   757   001020                     l186:
   758                           
   759                           ;main.c: 106:                     LATHbits.LATH3 = 1;
   760   001020  8680               	bsf	128,3,c	;volatile
   761   001022                     
   762                           ;main.c: 107:                     _delay((unsigned long)((150)*(64000000/4000.0)));
   763   001022  0E0D               	movlw	13
   764   001024  6E24               	movwf	(??_main+1)^0,c
   765   001026  0E2D               	movlw	45
   766   001028  6E23               	movwf	??_main^0,c
   767   00102A  0ED8               	movlw	216
   768   00102C                     u707:
   769   00102C  2EE8               	decfsz	wreg,f,c
   770   00102E  D7FE               	bra	u707
   771   001030  2E23               	decfsz	??_main^0,f,c
   772   001032  D7FC               	bra	u707
   773   001034  2E24               	decfsz	(??_main+1)^0,f,c
   774   001036  D7FA               	bra	u707
   775   001038                     
   776                           ;main.c: 108:                     LATHbits.LATH3 = 0;
   777   001038  9680               	bcf	128,3,c	;volatile
   778                           
   779                           ;main.c: 109:                     _delay((unsigned long)((150)*(64000000/4000.0)));
   780   00103A  0E0D               	movlw	13
   781   00103C  6E24               	movwf	(??_main+1)^0,c
   782   00103E  0E2D               	movlw	45
   783   001040  6E23               	movwf	??_main^0,c
   784   001042  0ED8               	movlw	216
   785   001044                     u717:
   786   001044  2EE8               	decfsz	wreg,f,c
   787   001046  D7FE               	bra	u717
   788   001048  2E23               	decfsz	??_main^0,f,c
   789   00104A  D7FC               	bra	u717
   790   00104C  2E24               	decfsz	(??_main+1)^0,f,c
   791   00104E  D7FA               	bra	u717
   792   001050                     
   793                           ;main.c: 110:                 }
   794   001050  2A29               	incf	main@i_708^0,f,c
   795   001052  0E02               	movlw	2
   796   001054  6429               	cpfsgt	main@i_708^0,c
   797   001056  EF2F  F008         	goto	u551
   798   00105A  EF31  F008         	goto	u550
   799   00105E                     u551:
   800   00105E  EF10  F008         	goto	l186
   801   001062                     u550:
   802   001062                     
   803                           ;main.c: 111:                 LATDbits.LATD7 = 1;
   804   001062  8E7C               	bsf	124,7,c	;volatile
   805   001064                     
   806                           ;main.c: 112:                 _delay((unsigned long)((150)*(64000000/4000.0)));
   807   001064  0E0D               	movlw	13
   808   001066  6E24               	movwf	(??_main+1)^0,c
   809   001068  0E2D               	movlw	45
   810   00106A  6E23               	movwf	??_main^0,c
   811   00106C  0ED8               	movlw	216
   812   00106E                     u727:
   813   00106E  2EE8               	decfsz	wreg,f,c
   814   001070  D7FE               	bra	u727
   815   001072  2E23               	decfsz	??_main^0,f,c
   816   001074  D7FC               	bra	u727
   817   001076  2E24               	decfsz	(??_main+1)^0,f,c
   818   001078  D7FA               	bra	u727
   819   00107A                     
   820                           ;main.c: 113:                 LATDbits.LATD7 = 0;
   821   00107A  9E7C               	bcf	124,7,c	;volatile
   822                           
   823                           ;main.c: 114:                 _delay((unsigned long)((150)*(64000000/4000.0)));
   824   00107C  0E0D               	movlw	13
   825   00107E  6E24               	movwf	(??_main+1)^0,c
   826   001080  0E2D               	movlw	45
   827   001082  6E23               	movwf	??_main^0,c
   828   001084  0ED8               	movlw	216
   829   001086                     u737:
   830   001086  2EE8               	decfsz	wreg,f,c
   831   001088  D7FE               	bra	u737
   832   00108A  2E23               	decfsz	??_main^0,f,c
   833   00108C  D7FC               	bra	u737
   834   00108E  2E24               	decfsz	(??_main+1)^0,f,c
   835   001090  D7FA               	bra	u737
   836   001092                     l1747:
   837                           
   838                           ;main.c: 119:             wall_detected = 0;
   839   001092  0E00               	movlw	0
   840   001094  6E40               	movwf	_wall_detected^0,c
   841   001096                     
   842                           ;main.c: 121:             LEDturnON();
   843   001096  EC4B  F00B         	call	_LEDturnON	;wreg free
   844   00109A                     
   845                           ;main.c: 122:             LATHbits.LATH3 = 0;
   846   00109A  9680               	bcf	128,3,c	;volatile
   847   00109C  EF1A  F007         	goto	l1653
   848   0010A0  EF9B  F000         	goto	start
   849   0010A4                     __end_of_main:
   850                           	callstack 0
   851                           
   852 ;; *************** function _normalizeColors *****************
   853 ;; Defined at:
   854 ;;		line 125 in file "color.c"
   855 ;; Parameters:    Size  Location     Type
   856 ;;  RGBC            1   20[COMRAM] PTR struct colors
   857 ;;		 -> RGBC(8), 
   858 ;;  normRGB         1   21[COMRAM] PTR struct normColors
   859 ;;		 -> normRGB(6), 
   860 ;; Auto vars:     Size  Location     Type
   861 ;;  sum             2   30[COMRAM] unsigned int 
   862 ;; Return value:  Size  Location     Type
   863 ;;                  1    wreg      void 
   864 ;; Registers used:
   865 ;;		wreg, fsr2l, fsr2h, status,2, status,0, cstack
   866 ;; Tracked objects:
   867 ;;		On entry : 0/0
   868 ;;		On exit  : 0/0
   869 ;;		Unchanged: 0/0
   870 ;; Data sizes:     COMRAM   BANK0   BANK1   BANK2   BANK3   BANK4   BANK5   BANK6   BANK7   BANK8   BANK9  BANK10  BANK1
      +1  BANK12  BANK13
   871 ;;      Params:         2       0       0       0       0       0       0       0       0       0       0       0       
      +0       0       0
   872 ;;      Locals:         4       0       0       0       0       0       0       0       0       0       0       0       
      +0       0       0
   873 ;;      Temps:          8       0       0       0       0       0       0       0       0       0       0       0       
      +0       0       0
   874 ;;      Totals:        14       0       0       0       0       0       0       0       0       0       0       0       
      +0       0       0
   875 ;;Total ram usage:       14 bytes
   876 ;; Hardware stack levels used: 1
   877 ;; Hardware stack levels required when called: 5
   878 ;; This function calls:
   879 ;;		___lwdiv
   880 ;; This function is called by:
   881 ;;		_main
   882 ;; This function uses a non-reentrant model
   883 ;;
   884                           
   885                           	psect	text1
   886   0010A4                     __ptext1:
   887                           	callstack 0
   888   0010A4                     _normalizeColors:
   889                           	callstack 25
   890   0010A4                     
   891                           ;color.c: 126:     unsigned int sum = (RGBC->red) + (RGBC->green) + (RGBC->blue);
   892   0010A4  5015               	movf	normalizeColors@RGBC^0,w,c
   893   0010A6  6ED9               	movwf	fsr2l,c
   894   0010A8  6ADA               	clrf	fsr2h,c
   895   0010AA  0E04               	movlw	4
   896   0010AC  26D9               	addwf	fsr2l,f,c
   897   0010AE  CFDE F017          	movff	postinc2,??_normalizeColors
   898   0010B2  CFDD F018          	movff	postdec2,??_normalizeColors+1
   899   0010B6  5015               	movf	normalizeColors@RGBC^0,w,c
   900   0010B8  6ED9               	movwf	fsr2l,c
   901   0010BA  6ADA               	clrf	fsr2h,c
   902   0010BC  0E02               	movlw	2
   903   0010BE  26D9               	addwf	fsr2l,f,c
   904   0010C0  CFDE F019          	movff	postinc2,??_normalizeColors+2
   905   0010C4  CFDD F01A          	movff	postdec2,??_normalizeColors+3
   906   0010C8  5015               	movf	normalizeColors@RGBC^0,w,c
   907   0010CA  6ED9               	movwf	fsr2l,c
   908   0010CC  6ADA               	clrf	fsr2h,c
   909   0010CE  CFDE F01B          	movff	postinc2,??_normalizeColors+4
   910   0010D2  CFDD F01C          	movff	postdec2,??_normalizeColors+5
   911   0010D6  5019               	movf	(??_normalizeColors+2)^0,w,c
   912   0010D8  241B               	addwf	(??_normalizeColors+4)^0,w,c
   913   0010DA  6E1D               	movwf	(??_normalizeColors+6)^0,c
   914   0010DC  501A               	movf	(??_normalizeColors+3)^0,w,c
   915   0010DE  201C               	addwfc	(??_normalizeColors+5)^0,w,c
   916   0010E0  6E1E               	movwf	(??_normalizeColors+7)^0,c
   917   0010E2  5017               	movf	??_normalizeColors^0,w,c
   918   0010E4  241D               	addwf	(??_normalizeColors+6)^0,w,c
   919   0010E6  6E1F               	movwf	normalizeColors@sum^0,c
   920   0010E8  5018               	movf	(??_normalizeColors+1)^0,w,c
   921   0010EA  201E               	addwfc	(??_normalizeColors+7)^0,w,c
   922   0010EC  6E20               	movwf	(normalizeColors@sum+1)^0,c
   923   0010EE                     
   924                           ;color.c: 128:     normRGB->normRed = (RGBC->red) / ((sum)/100);
   925   0010EE  0E00               	movlw	0
   926   0010F0  6E11               	movwf	(___lwdiv@divisor+1)^0,c
   927   0010F2  0E64               	movlw	100
   928   0010F4  6E10               	movwf	___lwdiv@divisor^0,c
   929   0010F6  C01F  F00E         	movff	normalizeColors@sum,___lwdiv@dividend
   930   0010FA  C020  F00F         	movff	normalizeColors@sum+1,___lwdiv@dividend+1
   931   0010FE  EC6D  F009         	call	___lwdiv	;wreg free
   932   001102  C00E  F021         	movff	?___lwdiv,_normalizeColors$1890
   933   001106  C00F  F022         	movff	?___lwdiv+1,_normalizeColors$1890+1
   934   00110A                     
   935                           ;color.c: 128:     normRGB->normRed = (RGBC->red) / ((sum)/100);
   936   00110A  5015               	movf	normalizeColors@RGBC^0,w,c
   937   00110C  6ED9               	movwf	fsr2l,c
   938   00110E  6ADA               	clrf	fsr2h,c
   939   001110  CFDE F00E          	movff	postinc2,___lwdiv@dividend
   940   001114  CFDD F00F          	movff	postdec2,___lwdiv@dividend+1
   941   001118  C021  F010         	movff	_normalizeColors$1890,___lwdiv@divisor
   942   00111C  C022  F011         	movff	_normalizeColors$1890+1,___lwdiv@divisor+1
   943   001120  EC6D  F009         	call	___lwdiv	;wreg free
   944   001124  5016               	movf	normalizeColors@normRGB^0,w,c
   945   001126  6ED9               	movwf	fsr2l,c
   946   001128  6ADA               	clrf	fsr2h,c
   947   00112A  C00E  FFDE         	movff	?___lwdiv,postinc2
   948   00112E  C00F  FFDD         	movff	?___lwdiv+1,postdec2
   949   001132                     
   950                           ;color.c: 129:     normRGB->normGreen = (RGBC->green) / ((sum)/100);
   951   001132  0E00               	movlw	0
   952   001134  6E11               	movwf	(___lwdiv@divisor+1)^0,c
   953   001136  0E64               	movlw	100
   954   001138  6E10               	movwf	___lwdiv@divisor^0,c
   955   00113A  C01F  F00E         	movff	normalizeColors@sum,___lwdiv@dividend
   956   00113E  C020  F00F         	movff	normalizeColors@sum+1,___lwdiv@dividend+1
   957   001142  EC6D  F009         	call	___lwdiv	;wreg free
   958   001146  C00E  F021         	movff	?___lwdiv,_normalizeColors$1890
   959   00114A  C00F  F022         	movff	?___lwdiv+1,_normalizeColors$1890+1
   960   00114E                     
   961                           ;color.c: 129:     normRGB->normGreen = (RGBC->green) / ((sum)/100);
   962   00114E  5015               	movf	normalizeColors@RGBC^0,w,c
   963   001150  6ED9               	movwf	fsr2l,c
   964   001152  6ADA               	clrf	fsr2h,c
   965   001154  0E02               	movlw	2
   966   001156  26D9               	addwf	fsr2l,f,c
   967   001158  CFDE F00E          	movff	postinc2,___lwdiv@dividend
   968   00115C  CFDD F00F          	movff	postdec2,___lwdiv@dividend+1
   969   001160  C021  F010         	movff	_normalizeColors$1890,___lwdiv@divisor
   970   001164  C022  F011         	movff	_normalizeColors$1890+1,___lwdiv@divisor+1
   971   001168  EC6D  F009         	call	___lwdiv	;wreg free
   972   00116C  5016               	movf	normalizeColors@normRGB^0,w,c
   973   00116E  6ED9               	movwf	fsr2l,c
   974   001170  6ADA               	clrf	fsr2h,c
   975   001172  0E02               	movlw	2
   976   001174  26D9               	addwf	fsr2l,f,c
   977   001176  C00E  FFDE         	movff	?___lwdiv,postinc2
   978   00117A  C00F  FFDD         	movff	?___lwdiv+1,postdec2
   979   00117E                     
   980                           ;color.c: 130:     normRGB->normBlue = (RGBC->blue) / ((sum)/100);
   981   00117E  0E00               	movlw	0
   982   001180  6E11               	movwf	(___lwdiv@divisor+1)^0,c
   983   001182  0E64               	movlw	100
   984   001184  6E10               	movwf	___lwdiv@divisor^0,c
   985   001186  C01F  F00E         	movff	normalizeColors@sum,___lwdiv@dividend
   986   00118A  C020  F00F         	movff	normalizeColors@sum+1,___lwdiv@dividend+1
   987   00118E  EC6D  F009         	call	___lwdiv	;wreg free
   988   001192  C00E  F021         	movff	?___lwdiv,_normalizeColors$1890
   989   001196  C00F  F022         	movff	?___lwdiv+1,_normalizeColors$1890+1
   990   00119A                     
   991                           ;color.c: 130:     normRGB->normBlue = (RGBC->blue) / ((sum)/100);
   992   00119A  5015               	movf	normalizeColors@RGBC^0,w,c
   993   00119C  6ED9               	movwf	fsr2l,c
   994   00119E  6ADA               	clrf	fsr2h,c
   995   0011A0  0E04               	movlw	4
   996   0011A2  26D9               	addwf	fsr2l,f,c
   997   0011A4  CFDE F00E          	movff	postinc2,___lwdiv@dividend
   998   0011A8  CFDD F00F          	movff	postdec2,___lwdiv@dividend+1
   999   0011AC  C021  F010         	movff	_normalizeColors$1890,___lwdiv@divisor
  1000   0011B0  C022  F011         	movff	_normalizeColors$1890+1,___lwdiv@divisor+1
  1001   0011B4  EC6D  F009         	call	___lwdiv	;wreg free
  1002   0011B8  5016               	movf	normalizeColors@normRGB^0,w,c
  1003   0011BA  6ED9               	movwf	fsr2l,c
  1004   0011BC  6ADA               	clrf	fsr2h,c
  1005   0011BE  0E04               	movlw	4
  1006   0011C0  26D9               	addwf	fsr2l,f,c
  1007   0011C2  C00E  FFDE         	movff	?___lwdiv,postinc2
  1008   0011C6  C00F  FFDD         	movff	?___lwdiv+1,postdec2
  1009   0011CA  0012               	return		;funcret
  1010   0011CC                     __end_of_normalizeColors:
  1011                           	callstack 0
  1012                           
  1013 ;; *************** function ___lwdiv *****************
  1014 ;; Defined at:
  1015 ;;		line 7 in file "C:\Program Files\Microchip\xc8\v2.45\pic\sources\c99\common\lwdiv.c"
  1016 ;; Parameters:    Size  Location     Type
  1017 ;;  dividend        2   13[COMRAM] unsigned int 
  1018 ;;  divisor         2   15[COMRAM] unsigned int 
  1019 ;; Auto vars:     Size  Location     Type
  1020 ;;  quotient        2   17[COMRAM] unsigned int 
  1021 ;;  counter         1   19[COMRAM] unsigned char 
  1022 ;; Return value:  Size  Location     Type
  1023 ;;                  2   13[COMRAM] unsigned int 
  1024 ;; Registers used:
  1025 ;;		wreg, status,2, status,0
  1026 ;; Tracked objects:
  1027 ;;		On entry : 0/0
  1028 ;;		On exit  : 0/0
  1029 ;;		Unchanged: 0/0
  1030 ;; Data sizes:     COMRAM   BANK0   BANK1   BANK2   BANK3   BANK4   BANK5   BANK6   BANK7   BANK8   BANK9  BANK10  BANK1
      +1  BANK12  BANK13
  1031 ;;      Params:         4       0       0       0       0       0       0       0       0       0       0       0       
      +0       0       0
  1032 ;;      Locals:         3       0       0       0       0       0       0       0       0       0       0       0       
      +0       0       0
  1033 ;;      Temps:          0       0       0       0       0       0       0       0       0       0       0       0       
      +0       0       0
  1034 ;;      Totals:         7       0       0       0       0       0       0       0       0       0       0       0       
      +0       0       0
  1035 ;;Total ram usage:        7 bytes
  1036 ;; Hardware stack levels used: 1
  1037 ;; Hardware stack levels required when called: 4
  1038 ;; This function calls:
  1039 ;;		Nothing
  1040 ;; This function is called by:
  1041 ;;		_normalizeColors
  1042 ;; This function uses a non-reentrant model
  1043 ;;
  1044                           
  1045                           	psect	text2
  1046   0012DA                     __ptext2:
  1047                           	callstack 0
  1048   0012DA                     ___lwdiv:
  1049                           	callstack 25
  1050   0012DA  0E00               	movlw	0
  1051   0012DC  6E13               	movwf	(___lwdiv@quotient+1)^0,c
  1052   0012DE  0E00               	movlw	0
  1053   0012E0  6E12               	movwf	___lwdiv@quotient^0,c
  1054   0012E2  5010               	movf	___lwdiv@divisor^0,w,c
  1055   0012E4  1011               	iorwf	(___lwdiv@divisor+1)^0,w,c
  1056   0012E6  B4D8               	btfsc	status,2,c
  1057   0012E8  EF78  F009         	goto	u361
  1058   0012EC  EF7A  F009         	goto	u360
  1059   0012F0                     u361:
  1060   0012F0  EFA2  F009         	goto	l789
  1061   0012F4                     u360:
  1062   0012F4  0E01               	movlw	1
  1063   0012F6  6E14               	movwf	___lwdiv@counter^0,c
  1064   0012F8  EF82  F009         	goto	l1445
  1065   0012FC                     l1443:
  1066   0012FC  90D8               	bcf	status,0,c
  1067   0012FE  3610               	rlcf	___lwdiv@divisor^0,f,c
  1068   001300  3611               	rlcf	(___lwdiv@divisor+1)^0,f,c
  1069   001302  2A14               	incf	___lwdiv@counter^0,f,c
  1070   001304                     l1445:
  1071   001304  AE11               	btfss	(___lwdiv@divisor+1)^0,7,c
  1072   001306  EF87  F009         	goto	u371
  1073   00130A  EF89  F009         	goto	u370
  1074   00130E                     u371:
  1075   00130E  EF7E  F009         	goto	l1443
  1076   001312                     u370:
  1077   001312                     l1447:
  1078   001312  90D8               	bcf	status,0,c
  1079   001314  3612               	rlcf	___lwdiv@quotient^0,f,c
  1080   001316  3613               	rlcf	(___lwdiv@quotient+1)^0,f,c
  1081   001318  5010               	movf	___lwdiv@divisor^0,w,c
  1082   00131A  5C0E               	subwf	___lwdiv@dividend^0,w,c
  1083   00131C  5011               	movf	(___lwdiv@divisor+1)^0,w,c
  1084   00131E  580F               	subwfb	(___lwdiv@dividend+1)^0,w,c
  1085   001320  A0D8               	btfss	status,0,c
  1086   001322  EF95  F009         	goto	u381
  1087   001326  EF97  F009         	goto	u380
  1088   00132A                     u381:
  1089   00132A  EF9C  F009         	goto	l1455
  1090   00132E                     u380:
  1091   00132E  5010               	movf	___lwdiv@divisor^0,w,c
  1092   001330  5E0E               	subwf	___lwdiv@dividend^0,f,c
  1093   001332  5011               	movf	(___lwdiv@divisor+1)^0,w,c
  1094   001334  5A0F               	subwfb	(___lwdiv@dividend+1)^0,f,c
  1095   001336  8012               	bsf	___lwdiv@quotient^0,0,c
  1096   001338                     l1455:
  1097   001338  90D8               	bcf	status,0,c
  1098   00133A  3211               	rrcf	(___lwdiv@divisor+1)^0,f,c
  1099   00133C  3210               	rrcf	___lwdiv@divisor^0,f,c
  1100   00133E  2E14               	decfsz	___lwdiv@counter^0,f,c
  1101   001340  EF89  F009         	goto	l1447
  1102   001344                     l789:
  1103   001344  C012  F00E         	movff	___lwdiv@quotient,?___lwdiv
  1104   001348  C013  F00F         	movff	___lwdiv@quotient+1,?___lwdiv+1
  1105   00134C  0012               	return		;funcret
  1106   00134E                     __end_of___lwdiv:
  1107                           	callstack 0
  1108                           
  1109 ;; *************** function _interrupts_init *****************
  1110 ;; Defined at:
  1111 ;;		line 14 in file "interrupts.c"
  1112 ;; Parameters:    Size  Location     Type
  1113 ;;		None
  1114 ;; Auto vars:     Size  Location     Type
  1115 ;;		None
  1116 ;; Return value:  Size  Location     Type
  1117 ;;                  1    wreg      void 
  1118 ;; Registers used:
  1119 ;;		wreg, status,2, status,0, cstack
  1120 ;; Tracked objects:
  1121 ;;		On entry : 0/0
  1122 ;;		On exit  : 0/0
  1123 ;;		Unchanged: 0/0
  1124 ;; Data sizes:     COMRAM   BANK0   BANK1   BANK2   BANK3   BANK4   BANK5   BANK6   BANK7   BANK8   BANK9  BANK10  BANK1
      +1  BANK12  BANK13
  1125 ;;      Params:         0       0       0       0       0       0       0       0       0       0       0       0       
      +0       0       0
  1126 ;;      Locals:         0       0       0       0       0       0       0       0       0       0       0       0       
      +0       0       0
  1127 ;;      Temps:          0       0       0       0       0       0       0       0       0       0       0       0       
      +0       0       0
  1128 ;;      Totals:         0       0       0       0       0       0       0       0       0       0       0       0       
      +0       0       0
  1129 ;;Total ram usage:        0 bytes
  1130 ;; Hardware stack levels used: 1
  1131 ;; Hardware stack levels required when called: 7
  1132 ;; This function calls:
  1133 ;;		_clearInterrupt
  1134 ;;		_color_writetoaddr
  1135 ;; This function is called by:
  1136 ;;		_main
  1137 ;; This function uses a non-reentrant model
  1138 ;;
  1139                           
  1140                           	psect	text3
  1141   00134E                     __ptext3:
  1142                           	callstack 0
  1143   00134E                     _interrupts_init:
  1144                           	callstack 23
  1145   00134E                     
  1146                           ;interrupts.c: 21:     INT0PPS = 0x08;
  1147   00134E  0E08               	movlw	8
  1148   001350  010D               	movlb	13	; () banked
  1149   001352  6FF0               	movwf	240,b	;volatile
  1150   001354                     
  1151                           ; BSR set to: 13
  1152                           ;interrupts.c: 22:     PIE0bits.INT0IE = 1;
  1153   001354  010E               	movlb	14	; () banked
  1154   001356  8129               	bsf	41,0,b	;volatile
  1155   001358                     
  1156                           ; BSR set to: 14
  1157                           ;interrupts.c: 23:     INTCONbits.INT0EDG = 0;
  1158   001358  90F2               	bcf	242,0,c	;volatile
  1159   00135A                     
  1160                           ; BSR set to: 14
  1161                           ;interrupts.c: 24:     IPR0bits.INT0IP = 0;
  1162   00135A  911F               	bcf	31,0,b	;volatile
  1163   00135C                     
  1164                           ; BSR set to: 14
  1165                           ;interrupts.c: 25:     ANSELBbits.ANSELB0 = 0;
  1166   00135C  919A               	bcf	154,0,b	;volatile
  1167   00135E                     
  1168                           ; BSR set to: 14
  1169                           ;interrupts.c: 27:     color_writetoaddr(0x04, 0x00);
  1170   00135E  0E00               	movlw	0
  1171   001360  6E10               	movwf	color_writetoaddr@value^0,c
  1172   001362  0E04               	movlw	4
  1173   001364  ECEC  F00A         	call	_color_writetoaddr
  1174   001368                     
  1175                           ;interrupts.c: 28:     color_writetoaddr(0x05, 0x01);
  1176   001368  0E01               	movlw	1
  1177   00136A  6E10               	movwf	color_writetoaddr@value^0,c
  1178   00136C  0E05               	movlw	5
  1179   00136E  ECEC  F00A         	call	_color_writetoaddr
  1180   001372                     
  1181                           ;interrupts.c: 29:     color_writetoaddr(0x06, 0x1C0);
  1182   001372  0EC0               	movlw	192
  1183   001374  6E10               	movwf	color_writetoaddr@value^0,c
  1184   001376  0E06               	movlw	6
  1185   001378  ECEC  F00A         	call	_color_writetoaddr
  1186   00137C                     
  1187                           ;interrupts.c: 30:     color_writetoaddr(0x07, 0b0000001);
  1188   00137C  0E01               	movlw	1
  1189   00137E  6E10               	movwf	color_writetoaddr@value^0,c
  1190   001380  0E07               	movlw	7
  1191   001382  ECEC  F00A         	call	_color_writetoaddr
  1192   001386                     
  1193                           ;interrupts.c: 32:     color_writetoaddr(0x0C, 0b0111);
  1194   001386  0E07               	movlw	7
  1195   001388  6E10               	movwf	color_writetoaddr@value^0,c
  1196   00138A  0E0C               	movlw	12
  1197   00138C  ECEC  F00A         	call	_color_writetoaddr
  1198   001390                     
  1199                           ;interrupts.c: 35:     PIE0bits.TMR0IE = 1;
  1200   001390  010E               	movlb	14	; () banked
  1201   001392  8B29               	bsf	41,5,b	;volatile
  1202   001394                     
  1203                           ; BSR set to: 14
  1204                           ;interrupts.c: 36:     INTCONbits.PEIE=1;
  1205   001394  8CF2               	bsf	242,6,c	;volatile
  1206   001396                     
  1207                           ; BSR set to: 14
  1208                           ;interrupts.c: 53:     clearInterrupt();
  1209   001396  EC15  F00B         	call	_clearInterrupt	;wreg free
  1210   00139A                     
  1211                           ;interrupts.c: 56:     INTCONbits.GIE=1;
  1212   00139A  8EF2               	bsf	242,7,c	;volatile
  1213   00139C  0012               	return		;funcret
  1214   00139E                     __end_of_interrupts_init:
  1215                           	callstack 0
  1216                           
  1217 ;; *************** function _clearInterrupt *****************
  1218 ;; Defined at:
  1219 ;;		line 146 in file "interrupts.c"
  1220 ;; Parameters:    Size  Location     Type
  1221 ;;		None
  1222 ;; Auto vars:     Size  Location     Type
  1223 ;;		None
  1224 ;; Return value:  Size  Location     Type
  1225 ;;                  1    wreg      void 
  1226 ;; Registers used:
  1227 ;;		wreg, status,2, status,0, cstack
  1228 ;; Tracked objects:
  1229 ;;		On entry : 0/0
  1230 ;;		On exit  : 0/0
  1231 ;;		Unchanged: 0/0
  1232 ;; Data sizes:     COMRAM   BANK0   BANK1   BANK2   BANK3   BANK4   BANK5   BANK6   BANK7   BANK8   BANK9  BANK10  BANK1
      +1  BANK12  BANK13
  1233 ;;      Params:         0       0       0       0       0       0       0       0       0       0       0       0       
      +0       0       0
  1234 ;;      Locals:         0       0       0       0       0       0       0       0       0       0       0       0       
      +0       0       0
  1235 ;;      Temps:          0       0       0       0       0       0       0       0       0       0       0       0       
      +0       0       0
  1236 ;;      Totals:         0       0       0       0       0       0       0       0       0       0       0       0       
      +0       0       0
  1237 ;;Total ram usage:        0 bytes
  1238 ;; Hardware stack levels used: 1
  1239 ;; Hardware stack levels required when called: 6
  1240 ;; This function calls:
  1241 ;;		_I2C_2_Master_Start
  1242 ;;		_I2C_2_Master_Stop
  1243 ;;		_I2C_2_Master_Write
  1244 ;; This function is called by:
  1245 ;;		_interrupts_init
  1246 ;; This function uses a non-reentrant model
  1247 ;;
  1248                           
  1249                           	psect	text4
  1250   00162A                     __ptext4:
  1251                           	callstack 0
  1252   00162A                     _clearInterrupt:
  1253                           	callstack 23
  1254   00162A                     
  1255                           ;interrupts.c: 147:     I2C_2_Master_Start();
  1256   00162A  EC46  F00B         	call	_I2C_2_Master_Start	;wreg free
  1257                           
  1258                           ;interrupts.c: 148:     I2C_2_Master_Write(0x52 | 0x00);
  1259   00162E  0E52               	movlw	82
  1260   001630  EC35  F00B         	call	_I2C_2_Master_Write
  1261                           
  1262                           ;interrupts.c: 149:     I2C_2_Master_Write(0xe0 | 0x06 );
  1263   001634  0EE6               	movlw	230
  1264   001636  EC35  F00B         	call	_I2C_2_Master_Write
  1265                           
  1266                           ;interrupts.c: 150:     I2C_2_Master_Stop();
  1267   00163A  EC41  F00B         	call	_I2C_2_Master_Stop	;wreg free
  1268   00163E  0012               	return		;funcret
  1269   001640                     __end_of_clearInterrupt:
  1270                           	callstack 0
  1271                           
  1272 ;; *************** function _init_buttons_LED *****************
  1273 ;; Defined at:
  1274 ;;		line 6 in file "interact.c"
  1275 ;; Parameters:    Size  Location     Type
  1276 ;;		None
  1277 ;; Auto vars:     Size  Location     Type
  1278 ;;		None
  1279 ;; Return value:  Size  Location     Type
  1280 ;;                  1    wreg      void 
  1281 ;; Registers used:
  1282 ;;		None
  1283 ;; Tracked objects:
  1284 ;;		On entry : 0/0
  1285 ;;		On exit  : 0/0
  1286 ;;		Unchanged: 0/0
  1287 ;; Data sizes:     COMRAM   BANK0   BANK1   BANK2   BANK3   BANK4   BANK5   BANK6   BANK7   BANK8   BANK9  BANK10  BANK1
      +1  BANK12  BANK13
  1288 ;;      Params:         0       0       0       0       0       0       0       0       0       0       0       0       
      +0       0       0
  1289 ;;      Locals:         0       0       0       0       0       0       0       0       0       0       0       0       
      +0       0       0
  1290 ;;      Temps:          0       0       0       0       0       0       0       0       0       0       0       0       
      +0       0       0
  1291 ;;      Totals:         0       0       0       0       0       0       0       0       0       0       0       0       
      +0       0       0
  1292 ;;Total ram usage:        0 bytes
  1293 ;; Hardware stack levels used: 1
  1294 ;; Hardware stack levels required when called: 4
  1295 ;; This function calls:
  1296 ;;		Nothing
  1297 ;; This function is called by:
  1298 ;;		_main
  1299 ;; This function uses a non-reentrant model
  1300 ;;
  1301                           
  1302                           	psect	text5
  1303   001656                     __ptext5:
  1304                           	callstack 0
  1305   001656                     _init_buttons_LED:
  1306                           	callstack 26
  1307   001656                     
  1308                           ;interact.c: 9:     TRISGbits.TRISG0 = 0;
  1309   001656  9087               	bcf	135,0,c	;volatile
  1310                           
  1311                           ;interact.c: 10:     TRISEbits.TRISE7 = 0;
  1312   001658  9E85               	bcf	133,7,c	;volatile
  1313                           
  1314                           ;interact.c: 11:     TRISAbits.TRISA3 = 0;
  1315   00165A  9681               	bcf	129,3,c	;volatile
  1316                           
  1317                           ;interact.c: 12:     TRISDbits.TRISD3 = 0;
  1318   00165C  9684               	bcf	132,3,c	;volatile
  1319                           
  1320                           ;interact.c: 13:     TRISHbits.TRISH1 = 0;
  1321   00165E  9288               	bcf	136,1,c	;volatile
  1322                           
  1323                           ;interact.c: 14:     TRISDbits.TRISD4 = 0;
  1324   001660  9884               	bcf	132,4,c	;volatile
  1325                           
  1326                           ;interact.c: 17:     LATGbits.LATG0 = 0;
  1327   001662  907F               	bcf	127,0,c	;volatile
  1328                           
  1329                           ;interact.c: 18:     LATEbits.LATE7 = 0;
  1330   001664  9E7D               	bcf	125,7,c	;volatile
  1331                           
  1332                           ;interact.c: 19:     LATAbits.LATA3 = 0;
  1333   001666  9679               	bcf	121,3,c	;volatile
  1334   001668  0012               	return		;funcret
  1335   00166A                     __end_of_init_buttons_LED:
  1336                           	callstack 0
  1337                           
  1338 ;; *************** function _decideColor *****************
  1339 ;; Defined at:
  1340 ;;		line 160 in file "color.c"
  1341 ;; Parameters:    Size  Location     Type
  1342 ;;  normRGB         1   13[COMRAM] PTR struct normColors
  1343 ;;		 -> normRGB(6), 
  1344 ;; Auto vars:     Size  Location     Type
  1345 ;;		None
  1346 ;; Return value:  Size  Location     Type
  1347 ;;                  2   13[COMRAM] unsigned int 
  1348 ;; Registers used:
  1349 ;;		wreg, fsr2l, fsr2h, status,2, status,0
  1350 ;; Tracked objects:
  1351 ;;		On entry : 0/0
  1352 ;;		On exit  : 0/0
  1353 ;;		Unchanged: 0/0
  1354 ;; Data sizes:     COMRAM   BANK0   BANK1   BANK2   BANK3   BANK4   BANK5   BANK6   BANK7   BANK8   BANK9  BANK10  BANK1
      +1  BANK12  BANK13
  1355 ;;      Params:         2       0       0       0       0       0       0       0       0       0       0       0       
      +0       0       0
  1356 ;;      Locals:         0       0       0       0       0       0       0       0       0       0       0       0       
      +0       0       0
  1357 ;;      Temps:          2       0       0       0       0       0       0       0       0       0       0       0       
      +0       0       0
  1358 ;;      Totals:         4       0       0       0       0       0       0       0       0       0       0       0       
      +0       0       0
  1359 ;;Total ram usage:        4 bytes
  1360 ;; Hardware stack levels used: 1
  1361 ;; Hardware stack levels required when called: 4
  1362 ;; This function calls:
  1363 ;;		Nothing
  1364 ;; This function is called by:
  1365 ;;		_main
  1366 ;; This function uses a non-reentrant model
  1367 ;;
  1368                           
  1369                           	psect	text6
  1370   0011CC                     __ptext6:
  1371                           	callstack 0
  1372   0011CC                     _decideColor:
  1373                           	callstack 26
  1374   0011CC                     
  1375                           ;color.c: 162:     if (normRGB->normBlue > 18) {
  1376   0011CC  500E               	movf	decideColor@normRGB^0,w,c
  1377   0011CE  6ED9               	movwf	fsr2l,c
  1378   0011D0  6ADA               	clrf	fsr2h,c
  1379   0011D2  0E04               	movlw	4
  1380   0011D4  26D9               	addwf	fsr2l,f,c
  1381   0011D6  0E01               	movlw	1
  1382   0011D8  50DB               	movf	plusw2,w,c
  1383   0011DA  E109               	bnz	u390
  1384   0011DC  0E13               	movlw	19
  1385   0011DE  5CDE               	subwf	postinc2,w,c
  1386   0011E0  A0D8               	btfss	status,0,c
  1387   0011E2  EFF5  F008         	goto	u391
  1388   0011E6  EFF7  F008         	goto	u390
  1389   0011EA                     u391:
  1390   0011EA  EFFD  F008         	goto	l1527
  1391   0011EE                     u390:
  1392   0011EE                     
  1393                           ;color.c: 163:         return 2;
  1394   0011EE  0E00               	movlw	0
  1395   0011F0  6E0F               	movwf	(?_decideColor+1)^0,c
  1396   0011F2  0E02               	movlw	2
  1397   0011F4  6E0E               	movwf	?_decideColor^0,c
  1398   0011F6  EF6C  F009         	goto	l62
  1399   0011FA                     l1527:
  1400                           
  1401                           ;color.c: 165:     if (normRGB->normGreen > 40) {
  1402   0011FA  500E               	movf	decideColor@normRGB^0,w,c
  1403   0011FC  6ED9               	movwf	fsr2l,c
  1404   0011FE  6ADA               	clrf	fsr2h,c
  1405   001200  0E02               	movlw	2
  1406   001202  26D9               	addwf	fsr2l,f,c
  1407   001204  0E01               	movlw	1
  1408   001206  50DB               	movf	plusw2,w,c
  1409   001208  E109               	bnz	u400
  1410   00120A  0E29               	movlw	41
  1411   00120C  5CDE               	subwf	postinc2,w,c
  1412   00120E  A0D8               	btfss	status,0,c
  1413   001210  EF0C  F009         	goto	u401
  1414   001214  EF0E  F009         	goto	u400
  1415   001218                     u401:
  1416   001218  EF2B  F009         	goto	l1541
  1417   00121C                     u400:
  1418   00121C                     
  1419                           ;color.c: 166:         if (normRGB->normBlue > 12) {
  1420   00121C  500E               	movf	decideColor@normRGB^0,w,c
  1421   00121E  6ED9               	movwf	fsr2l,c
  1422   001220  6ADA               	clrf	fsr2h,c
  1423   001222  0E04               	movlw	4
  1424   001224  26D9               	addwf	fsr2l,f,c
  1425   001226  0E01               	movlw	1
  1426   001228  50DB               	movf	plusw2,w,c
  1427   00122A  E109               	bnz	u410
  1428   00122C  0E0D               	movlw	13
  1429   00122E  5CDE               	subwf	postinc2,w,c
  1430   001230  A0D8               	btfss	status,0,c
  1431   001232  EF1D  F009         	goto	u411
  1432   001236  EF1F  F009         	goto	u410
  1433   00123A                     u411:
  1434   00123A  EF25  F009         	goto	l1535
  1435   00123E                     u410:
  1436   00123E                     
  1437                           ;color.c: 167:             return 6;
  1438   00123E  0E00               	movlw	0
  1439   001240  6E0F               	movwf	(?_decideColor+1)^0,c
  1440   001242  0E06               	movlw	6
  1441   001244  6E0E               	movwf	?_decideColor^0,c
  1442   001246  EF6C  F009         	goto	l62
  1443   00124A                     l1535:
  1444                           
  1445                           ;color.c: 170:         return 1;
  1446   00124A  0E00               	movlw	0
  1447   00124C  6E0F               	movwf	(?_decideColor+1)^0,c
  1448   00124E  0E01               	movlw	1
  1449   001250  6E0E               	movwf	?_decideColor^0,c
  1450   001252  EF6C  F009         	goto	l62
  1451   001256                     l1541:
  1452                           
  1453                           ;color.c: 172:     if (normRGB->normRed > 55) {
  1454   001256  500E               	movf	decideColor@normRGB^0,w,c
  1455   001258  6ED9               	movwf	fsr2l,c
  1456   00125A  6ADA               	clrf	fsr2h,c
  1457   00125C  0E01               	movlw	1
  1458   00125E  50DB               	movf	plusw2,w,c
  1459   001260  E109               	bnz	u420
  1460   001262  0E38               	movlw	56
  1461   001264  5CDE               	subwf	postinc2,w,c
  1462   001266  A0D8               	btfss	status,0,c
  1463   001268  EF38  F009         	goto	u421
  1464   00126C  EF3A  F009         	goto	u420
  1465   001270                     u421:
  1466   001270  EF68  F009         	goto	l1555
  1467   001274                     u420:
  1468   001274                     
  1469                           ;color.c: 174:         if (normRGB->normGreen > 30) {
  1470   001274  500E               	movf	decideColor@normRGB^0,w,c
  1471   001276  6ED9               	movwf	fsr2l,c
  1472   001278  6ADA               	clrf	fsr2h,c
  1473   00127A  0E02               	movlw	2
  1474   00127C  26D9               	addwf	fsr2l,f,c
  1475   00127E  0E01               	movlw	1
  1476   001280  50DB               	movf	plusw2,w,c
  1477   001282  E109               	bnz	u430
  1478   001284  0E1F               	movlw	31
  1479   001286  5CDE               	subwf	postinc2,w,c
  1480   001288  A0D8               	btfss	status,0,c
  1481   00128A  EF49  F009         	goto	u431
  1482   00128E  EF4B  F009         	goto	u430
  1483   001292                     u431:
  1484   001292  EF68  F009         	goto	l1555
  1485   001296                     u430:
  1486   001296                     
  1487                           ;color.c: 175:             if (normRGB->normBlue > 12) {
  1488   001296  500E               	movf	decideColor@normRGB^0,w,c
  1489   001298  6ED9               	movwf	fsr2l,c
  1490   00129A  6ADA               	clrf	fsr2h,c
  1491   00129C  0E04               	movlw	4
  1492   00129E  26D9               	addwf	fsr2l,f,c
  1493   0012A0  0E01               	movlw	1
  1494   0012A2  50DB               	movf	plusw2,w,c
  1495   0012A4  E109               	bnz	u440
  1496   0012A6  0E0D               	movlw	13
  1497   0012A8  5CDE               	subwf	postinc2,w,c
  1498   0012AA  A0D8               	btfss	status,0,c
  1499   0012AC  EF5A  F009         	goto	u441
  1500   0012B0  EF5C  F009         	goto	u440
  1501   0012B4                     u441:
  1502   0012B4  EF62  F009         	goto	l1551
  1503   0012B8                     u440:
  1504   0012B8                     
  1505                           ;color.c: 176:                 return 4;
  1506   0012B8  0E00               	movlw	0
  1507   0012BA  6E0F               	movwf	(?_decideColor+1)^0,c
  1508   0012BC  0E04               	movlw	4
  1509   0012BE  6E0E               	movwf	?_decideColor^0,c
  1510   0012C0  EF6C  F009         	goto	l62
  1511   0012C4                     l1551:
  1512                           
  1513                           ;color.c: 179:             return 3;
  1514   0012C4  0E00               	movlw	0
  1515   0012C6  6E0F               	movwf	(?_decideColor+1)^0,c
  1516   0012C8  0E03               	movlw	3
  1517   0012CA  6E0E               	movwf	?_decideColor^0,c
  1518   0012CC  EF6C  F009         	goto	l62
  1519   0012D0                     l1555:
  1520                           
  1521                           ;color.c: 181:         return 0;
  1522   0012D0  0E00               	movlw	0
  1523   0012D2  6E0F               	movwf	(?_decideColor+1)^0,c
  1524   0012D4  0E00               	movlw	0
  1525   0012D6  6E0E               	movwf	?_decideColor^0,c
  1526   0012D8                     l62:
  1527   0012D8  0012               	return		;funcret
  1528   0012DA                     __end_of_decideColor:
  1529                           	callstack 0
  1530                           
  1531 ;; *************** function _color_click_init *****************
  1532 ;; Defined at:
  1533 ;;		line 6 in file "color.c"
  1534 ;; Parameters:    Size  Location     Type
  1535 ;;		None
  1536 ;; Auto vars:     Size  Location     Type
  1537 ;;		None
  1538 ;; Return value:  Size  Location     Type
  1539 ;;                  1    wreg      void 
  1540 ;; Registers used:
  1541 ;;		wreg, status,2, status,0, cstack
  1542 ;; Tracked objects:
  1543 ;;		On entry : 0/0
  1544 ;;		On exit  : 0/0
  1545 ;;		Unchanged: 0/0
  1546 ;; Data sizes:     COMRAM   BANK0   BANK1   BANK2   BANK3   BANK4   BANK5   BANK6   BANK7   BANK8   BANK9  BANK10  BANK1
      +1  BANK12  BANK13
  1547 ;;      Params:         0       0       0       0       0       0       0       0       0       0       0       0       
      +0       0       0
  1548 ;;      Locals:         0       0       0       0       0       0       0       0       0       0       0       0       
      +0       0       0
  1549 ;;      Temps:          1       0       0       0       0       0       0       0       0       0       0       0       
      +0       0       0
  1550 ;;      Totals:         1       0       0       0       0       0       0       0       0       0       0       0       
      +0       0       0
  1551 ;;Total ram usage:        1 bytes
  1552 ;; Hardware stack levels used: 1
  1553 ;; Hardware stack levels required when called: 7
  1554 ;; This function calls:
  1555 ;;		_I2C_2_Master_Init
  1556 ;;		_color_writetoaddr
  1557 ;; This function is called by:
  1558 ;;		_main
  1559 ;; This function uses a non-reentrant model
  1560 ;;
  1561                           
  1562                           	psect	text7
  1563   001520                     __ptext7:
  1564                           	callstack 0
  1565   001520                     _color_click_init:
  1566                           	callstack 23
  1567   001520                     
  1568                           ;color.c: 9:     I2C_2_Master_Init();
  1569   001520  ECAF  F00A         	call	_I2C_2_Master_Init	;wreg free
  1570   001524                     
  1571                           ;color.c: 13:  color_writetoaddr(0x00, 0x01);
  1572   001524  0E01               	movlw	1
  1573   001526  6E10               	movwf	color_writetoaddr@value^0,c
  1574   001528  0E00               	movlw	0
  1575   00152A  ECEC  F00A         	call	_color_writetoaddr
  1576   00152E                     
  1577                           ;color.c: 14:     _delay((unsigned long)((3)*(64000000/4000.0)));
  1578   00152E  0E3F               	movlw	63
  1579   001530  6E12               	movwf	??_color_click_init^0,c
  1580   001532  0E55               	movlw	85
  1581   001534                     u747:
  1582   001534  2EE8               	decfsz	wreg,f,c
  1583   001536  D7FE               	bra	u747
  1584   001538  2E12               	decfsz	??_color_click_init^0,f,c
  1585   00153A  D7FC               	bra	u747
  1586   00153C  0000               	nop	
  1587   00153E                     
  1588                           ;color.c: 20:  color_writetoaddr(0x00, 0x03);
  1589   00153E  0E03               	movlw	3
  1590   001540  6E10               	movwf	color_writetoaddr@value^0,c
  1591   001542  0E00               	movlw	0
  1592   001544  ECEC  F00A         	call	_color_writetoaddr
  1593   001548                     
  1594                           ;color.c: 23:  color_writetoaddr(0x01, 0xF6);
  1595   001548  0EF6               	movlw	246
  1596   00154A  6E10               	movwf	color_writetoaddr@value^0,c
  1597   00154C  0E01               	movlw	1
  1598   00154E  ECEC  F00A         	call	_color_writetoaddr
  1599   001552                     
  1600                           ;color.c: 30:     color_writetoaddr(0x00, 0x13);
  1601   001552  0E13               	movlw	19
  1602   001554  6E10               	movwf	color_writetoaddr@value^0,c
  1603   001556  0E00               	movlw	0
  1604   001558  ECEC  F00A         	call	_color_writetoaddr
  1605   00155C  0012               	return		;funcret
  1606   00155E                     __end_of_color_click_init:
  1607                           	callstack 0
  1608                           
  1609 ;; *************** function _color_writetoaddr *****************
  1610 ;; Defined at:
  1611 ;;		line 61 in file "color.c"
  1612 ;; Parameters:    Size  Location     Type
  1613 ;;  address         1    wreg     unsigned char 
  1614 ;;  value           1   15[COMRAM] unsigned char 
  1615 ;; Auto vars:     Size  Location     Type
  1616 ;;  address         1   16[COMRAM] unsigned char 
  1617 ;; Return value:  Size  Location     Type
  1618 ;;                  1    wreg      void 
  1619 ;; Registers used:
  1620 ;;		wreg, status,2, status,0, cstack
  1621 ;; Tracked objects:
  1622 ;;		On entry : 0/0
  1623 ;;		On exit  : 0/0
  1624 ;;		Unchanged: 0/0
  1625 ;; Data sizes:     COMRAM   BANK0   BANK1   BANK2   BANK3   BANK4   BANK5   BANK6   BANK7   BANK8   BANK9  BANK10  BANK1
      +1  BANK12  BANK13
  1626 ;;      Params:         1       0       0       0       0       0       0       0       0       0       0       0       
      +0       0       0
  1627 ;;      Locals:         1       0       0       0       0       0       0       0       0       0       0       0       
      +0       0       0
  1628 ;;      Temps:          0       0       0       0       0       0       0       0       0       0       0       0       
      +0       0       0
  1629 ;;      Totals:         2       0       0       0       0       0       0       0       0       0       0       0       
      +0       0       0
  1630 ;;Total ram usage:        2 bytes
  1631 ;; Hardware stack levels used: 1
  1632 ;; Hardware stack levels required when called: 6
  1633 ;; This function calls:
  1634 ;;		_I2C_2_Master_Start
  1635 ;;		_I2C_2_Master_Stop
  1636 ;;		_I2C_2_Master_Write
  1637 ;; This function is called by:
  1638 ;;		_color_click_init
  1639 ;;		_interrupts_init
  1640 ;; This function uses a non-reentrant model
  1641 ;;
  1642                           
  1643                           	psect	text8
  1644   0015D8                     __ptext8:
  1645                           	callstack 0
  1646   0015D8                     _color_writetoaddr:
  1647                           	callstack 23
  1648                           
  1649                           ;incstack = 0
  1650                           ;color_writetoaddr@address stored from wreg
  1651   0015D8  6E11               	movwf	color_writetoaddr@address^0,c
  1652   0015DA                     
  1653                           ;color.c: 62:     I2C_2_Master_Start();
  1654   0015DA  EC46  F00B         	call	_I2C_2_Master_Start	;wreg free
  1655                           
  1656                           ;color.c: 63:     I2C_2_Master_Write(0x52 | 0x00);
  1657   0015DE  0E52               	movlw	82
  1658   0015E0  EC35  F00B         	call	_I2C_2_Master_Write
  1659                           
  1660                           ;color.c: 64:     I2C_2_Master_Write(0x80 | address);
  1661   0015E4  5011               	movf	color_writetoaddr@address^0,w,c
  1662   0015E6  0980               	iorlw	128
  1663   0015E8  EC35  F00B         	call	_I2C_2_Master_Write
  1664                           
  1665                           ;color.c: 65:     I2C_2_Master_Write(value);
  1666   0015EC  5010               	movf	color_writetoaddr@value^0,w,c
  1667   0015EE  EC35  F00B         	call	_I2C_2_Master_Write
  1668                           
  1669                           ;color.c: 66:     I2C_2_Master_Stop();
  1670   0015F2  EC41  F00B         	call	_I2C_2_Master_Stop	;wreg free
  1671   0015F6  0012               	return		;funcret
  1672   0015F8                     __end_of_color_writetoaddr:
  1673                           	callstack 0
  1674                           
  1675 ;; *************** function _I2C_2_Master_Write *****************
  1676 ;; Defined at:
  1677 ;;		line 45 in file "i2c.c"
  1678 ;; Parameters:    Size  Location     Type
  1679 ;;  data_byte       1    wreg     unsigned char 
  1680 ;; Auto vars:     Size  Location     Type
  1681 ;;  data_byte       1   14[COMRAM] unsigned char 
  1682 ;; Return value:  Size  Location     Type
  1683 ;;                  1    wreg      void 
  1684 ;; Registers used:
  1685 ;;		wreg, status,2, status,0, cstack
  1686 ;; Tracked objects:
  1687 ;;		On entry : 0/0
  1688 ;;		On exit  : 0/0
  1689 ;;		Unchanged: 0/0
  1690 ;; Data sizes:     COMRAM   BANK0   BANK1   BANK2   BANK3   BANK4   BANK5   BANK6   BANK7   BANK8   BANK9  BANK10  BANK1
      +1  BANK12  BANK13
  1691 ;;      Params:         0       0       0       0       0       0       0       0       0       0       0       0       
      +0       0       0
  1692 ;;      Locals:         1       0       0       0       0       0       0       0       0       0       0       0       
      +0       0       0
  1693 ;;      Temps:          0       0       0       0       0       0       0       0       0       0       0       0       
      +0       0       0
  1694 ;;      Totals:         1       0       0       0       0       0       0       0       0       0       0       0       
      +0       0       0
  1695 ;;Total ram usage:        1 bytes
  1696 ;; Hardware stack levels used: 1
  1697 ;; Hardware stack levels required when called: 5
  1698 ;; This function calls:
  1699 ;;		_I2C_2_Master_Idle
  1700 ;; This function is called by:
  1701 ;;		_color_writetoaddr
  1702 ;;		_clearInterrupt
  1703 ;;		_color_readdoublefromaddress
  1704 ;;		_color_readfromaddress
  1705 ;; This function uses a non-reentrant model
  1706 ;;
  1707                           
  1708                           	psect	text9
  1709   00166A                     __ptext9:
  1710                           	callstack 0
  1711   00166A                     _I2C_2_Master_Write:
  1712                           	callstack 23
  1713                           
  1714                           ;incstack = 0
  1715                           ;I2C_2_Master_Write@data_byte stored from wreg
  1716   00166A  6E0F               	movwf	I2C_2_Master_Write@data_byte^0,c
  1717   00166C                     
  1718                           ;i2c.c: 45: void I2C_2_Master_Write(unsigned char data_byte);i2c.c: 46: {;i2c.c: 47:   I
      +                          2C_2_Master_Idle();
  1719   00166C  ECC4  F00A         	call	_I2C_2_Master_Idle	;wreg free
  1720   001670                     
  1721                           ;i2c.c: 48:   SSP2BUF = data_byte;
  1722   001670  C00F  FED5         	movff	I2C_2_Master_Write@data_byte,3797	;volatile
  1723   001674  0012               	return		;funcret
  1724   001676                     __end_of_I2C_2_Master_Write:
  1725                           	callstack 0
  1726                           
  1727 ;; *************** function _I2C_2_Master_Stop *****************
  1728 ;; Defined at:
  1729 ;;		line 39 in file "i2c.c"
  1730 ;; Parameters:    Size  Location     Type
  1731 ;;		None
  1732 ;; Auto vars:     Size  Location     Type
  1733 ;;		None
  1734 ;; Return value:  Size  Location     Type
  1735 ;;                  1    wreg      void 
  1736 ;; Registers used:
  1737 ;;		wreg, status,2, status,0, cstack
  1738 ;; Tracked objects:
  1739 ;;		On entry : 0/0
  1740 ;;		On exit  : 0/0
  1741 ;;		Unchanged: 0/0
  1742 ;; Data sizes:     COMRAM   BANK0   BANK1   BANK2   BANK3   BANK4   BANK5   BANK6   BANK7   BANK8   BANK9  BANK10  BANK1
      +1  BANK12  BANK13
  1743 ;;      Params:         0       0       0       0       0       0       0       0       0       0       0       0       
      +0       0       0
  1744 ;;      Locals:         0       0       0       0       0       0       0       0       0       0       0       0       
      +0       0       0
  1745 ;;      Temps:          0       0       0       0       0       0       0       0       0       0       0       0       
      +0       0       0
  1746 ;;      Totals:         0       0       0       0       0       0       0       0       0       0       0       0       
      +0       0       0
  1747 ;;Total ram usage:        0 bytes
  1748 ;; Hardware stack levels used: 1
  1749 ;; Hardware stack levels required when called: 5
  1750 ;; This function calls:
  1751 ;;		_I2C_2_Master_Idle
  1752 ;; This function is called by:
  1753 ;;		_color_writetoaddr
  1754 ;;		_clearInterrupt
  1755 ;;		_color_readdoublefromaddress
  1756 ;; This function uses a non-reentrant model
  1757 ;;
  1758                           
  1759                           	psect	text10
  1760   001682                     __ptext10:
  1761                           	callstack 0
  1762   001682                     _I2C_2_Master_Stop:
  1763                           	callstack 23
  1764   001682                     
  1765                           ;i2c.c: 41:   I2C_2_Master_Idle();
  1766   001682  ECC4  F00A         	call	_I2C_2_Master_Idle	;wreg free
  1767   001686                     
  1768                           ;i2c.c: 42:   SSP2CON2bits.PEN = 1;
  1769   001686  010E               	movlb	14	; () banked
  1770   001688  85DA               	bsf	218,2,b	;volatile
  1771   00168A                     
  1772                           ; BSR set to: 14
  1773   00168A  0012               	return		;funcret
  1774   00168C                     __end_of_I2C_2_Master_Stop:
  1775                           	callstack 0
  1776                           
  1777 ;; *************** function _I2C_2_Master_Start *****************
  1778 ;; Defined at:
  1779 ;;		line 27 in file "i2c.c"
  1780 ;; Parameters:    Size  Location     Type
  1781 ;;		None
  1782 ;; Auto vars:     Size  Location     Type
  1783 ;;		None
  1784 ;; Return value:  Size  Location     Type
  1785 ;;                  1    wreg      void 
  1786 ;; Registers used:
  1787 ;;		wreg, status,2, status,0, cstack
  1788 ;; Tracked objects:
  1789 ;;		On entry : 0/0
  1790 ;;		On exit  : 0/0
  1791 ;;		Unchanged: 0/0
  1792 ;; Data sizes:     COMRAM   BANK0   BANK1   BANK2   BANK3   BANK4   BANK5   BANK6   BANK7   BANK8   BANK9  BANK10  BANK1
      +1  BANK12  BANK13
  1793 ;;      Params:         0       0       0       0       0       0       0       0       0       0       0       0       
      +0       0       0
  1794 ;;      Locals:         0       0       0       0       0       0       0       0       0       0       0       0       
      +0       0       0
  1795 ;;      Temps:          0       0       0       0       0       0       0       0       0       0       0       0       
      +0       0       0
  1796 ;;      Totals:         0       0       0       0       0       0       0       0       0       0       0       0       
      +0       0       0
  1797 ;;Total ram usage:        0 bytes
  1798 ;; Hardware stack levels used: 1
  1799 ;; Hardware stack levels required when called: 5
  1800 ;; This function calls:
  1801 ;;		_I2C_2_Master_Idle
  1802 ;; This function is called by:
  1803 ;;		_color_writetoaddr
  1804 ;;		_clearInterrupt
  1805 ;;		_color_readdoublefromaddress
  1806 ;;		_color_readfromaddress
  1807 ;; This function uses a non-reentrant model
  1808 ;;
  1809                           
  1810                           	psect	text11
  1811   00168C                     __ptext11:
  1812                           	callstack 0
  1813   00168C                     _I2C_2_Master_Start:
  1814                           	callstack 23
  1815   00168C                     
  1816                           ;i2c.c: 29:   I2C_2_Master_Idle();
  1817   00168C  ECC4  F00A         	call	_I2C_2_Master_Idle	;wreg free
  1818   001690                     
  1819                           ;i2c.c: 30:   SSP2CON2bits.SEN = 1;
  1820   001690  010E               	movlb	14	; () banked
  1821   001692  81DA               	bsf	218,0,b	;volatile
  1822   001694                     
  1823                           ; BSR set to: 14
  1824   001694  0012               	return		;funcret
  1825   001696                     __end_of_I2C_2_Master_Start:
  1826                           	callstack 0
  1827                           
  1828 ;; *************** function _I2C_2_Master_Idle *****************
  1829 ;; Defined at:
  1830 ;;		line 22 in file "i2c.c"
  1831 ;; Parameters:    Size  Location     Type
  1832 ;;		None
  1833 ;; Auto vars:     Size  Location     Type
  1834 ;;		None
  1835 ;; Return value:  Size  Location     Type
  1836 ;;                  1    wreg      void 
  1837 ;; Registers used:
  1838 ;;		wreg, status,2, status,0
  1839 ;; Tracked objects:
  1840 ;;		On entry : 0/0
  1841 ;;		On exit  : 0/0
  1842 ;;		Unchanged: 0/0
  1843 ;; Data sizes:     COMRAM   BANK0   BANK1   BANK2   BANK3   BANK4   BANK5   BANK6   BANK7   BANK8   BANK9  BANK10  BANK1
      +1  BANK12  BANK13
  1844 ;;      Params:         0       0       0       0       0       0       0       0       0       0       0       0       
      +0       0       0
  1845 ;;      Locals:         0       0       0       0       0       0       0       0       0       0       0       0       
      +0       0       0
  1846 ;;      Temps:          1       0       0       0       0       0       0       0       0       0       0       0       
      +0       0       0
  1847 ;;      Totals:         1       0       0       0       0       0       0       0       0       0       0       0       
      +0       0       0
  1848 ;;Total ram usage:        1 bytes
  1849 ;; Hardware stack levels used: 1
  1850 ;; Hardware stack levels required when called: 4
  1851 ;; This function calls:
  1852 ;;		Nothing
  1853 ;; This function is called by:
  1854 ;;		_I2C_2_Master_Start
  1855 ;;		_I2C_2_Master_Stop
  1856 ;;		_I2C_2_Master_Write
  1857 ;; This function uses a non-reentrant model
  1858 ;;
  1859                           
  1860                           	psect	text12
  1861   001588                     __ptext12:
  1862                           	callstack 0
  1863   001588                     _I2C_2_Master_Idle:
  1864                           	callstack 23
  1865   001588                     l98:
  1866   001588  010E               	movlb	14	; () banked
  1867   00158A  B5D8               	btfsc	216,2,b	;volatile
  1868   00158C  EFCA  F00A         	goto	u11
  1869   001590  EFCC  F00A         	goto	u10
  1870   001594                     u11:
  1871   001594  EFC4  F00A         	goto	l98
  1872   001598                     u10:
  1873   001598                     
  1874                           ; BSR set to: 14
  1875   001598  CEDA F00E          	movff	3802,??_I2C_2_Master_Idle	;volatile
  1876   00159C  0E1F               	movlw	31
  1877   00159E  160E               	andwf	??_I2C_2_Master_Idle^0,f,c
  1878   0015A0  A4D8               	btfss	status,2,c
  1879   0015A2  EFD5  F00A         	goto	u21
  1880   0015A6  EFD7  F00A         	goto	u20
  1881   0015AA                     u21:
  1882   0015AA  EFC4  F00A         	goto	l98
  1883   0015AE                     u20:
  1884   0015AE                     
  1885                           ; BSR set to: 14
  1886   0015AE  0012               	return		;funcret
  1887   0015B0                     __end_of_I2C_2_Master_Idle:
  1888                           	callstack 0
  1889                           
  1890 ;; *************** function _I2C_2_Master_Init *****************
  1891 ;; Defined at:
  1892 ;;		line 4 in file "i2c.c"
  1893 ;; Parameters:    Size  Location     Type
  1894 ;;		None
  1895 ;; Auto vars:     Size  Location     Type
  1896 ;;		None
  1897 ;; Return value:  Size  Location     Type
  1898 ;;                  1    wreg      void 
  1899 ;; Registers used:
  1900 ;;		wreg, status,2
  1901 ;; Tracked objects:
  1902 ;;		On entry : 0/0
  1903 ;;		On exit  : 0/0
  1904 ;;		Unchanged: 0/0
  1905 ;; Data sizes:     COMRAM   BANK0   BANK1   BANK2   BANK3   BANK4   BANK5   BANK6   BANK7   BANK8   BANK9  BANK10  BANK1
      +1  BANK12  BANK13
  1906 ;;      Params:         0       0       0       0       0       0       0       0       0       0       0       0       
      +0       0       0
  1907 ;;      Locals:         0       0       0       0       0       0       0       0       0       0       0       0       
      +0       0       0
  1908 ;;      Temps:          0       0       0       0       0       0       0       0       0       0       0       0       
      +0       0       0
  1909 ;;      Totals:         0       0       0       0       0       0       0       0       0       0       0       0       
      +0       0       0
  1910 ;;Total ram usage:        0 bytes
  1911 ;; Hardware stack levels used: 1
  1912 ;; Hardware stack levels required when called: 4
  1913 ;; This function calls:
  1914 ;;		Nothing
  1915 ;; This function is called by:
  1916 ;;		_color_click_init
  1917 ;; This function uses a non-reentrant model
  1918 ;;
  1919                           
  1920                           	psect	text13
  1921   00155E                     __ptext13:
  1922                           	callstack 0
  1923   00155E                     _I2C_2_Master_Init:
  1924                           	callstack 25
  1925   00155E                     
  1926                           ;i2c.c: 7:   SSP2CON1bits.SSPM= 0b1000;
  1927   00155E  010E               	movlb	14	; () banked
  1928   001560  51D9               	movf	217,w,b	;volatile
  1929   001562  0BF0               	andlw	-16
  1930   001564  0908               	iorlw	8
  1931   001566  6FD9               	movwf	217,b	;volatile
  1932   001568                     
  1933                           ; BSR set to: 14
  1934                           ;i2c.c: 8:   SSP2CON1bits.SSPEN = 1;
  1935   001568  8BD9               	bsf	217,5,b	;volatile
  1936                           
  1937                           ;i2c.c: 9:   SSP2ADD = (64000000/(4*100000))-1;
  1938   00156A  0E9F               	movlw	159
  1939   00156C  6FD6               	movwf	214,b	;volatile
  1940   00156E                     
  1941                           ; BSR set to: 14
  1942                           ;i2c.c: 12:   TRISDbits.TRISD5 = 1;
  1943   00156E  8A84               	bsf	132,5,c	;volatile
  1944   001570                     
  1945                           ; BSR set to: 14
  1946                           ;i2c.c: 13:   TRISDbits.TRISD6 = 1;
  1947   001570  8C84               	bsf	132,6,c	;volatile
  1948   001572                     
  1949                           ; BSR set to: 14
  1950                           ;i2c.c: 14:   ANSELDbits.ANSELD5=0;
  1951   001572  9BA7               	bcf	167,5,b	;volatile
  1952   001574                     
  1953                           ; BSR set to: 14
  1954                           ;i2c.c: 15:   ANSELDbits.ANSELD6=0;
  1955   001574  9DA7               	bcf	167,6,b	;volatile
  1956                           
  1957                           ;i2c.c: 16:   SSP2DATPPS=0x1D;
  1958   001576  0E1D               	movlw	29
  1959   001578  6F1D               	movwf	29,b	;volatile
  1960                           
  1961                           ;i2c.c: 17:   SSP2CLKPPS=0x1E;
  1962   00157A  0E1E               	movlw	30
  1963   00157C  6F1C               	movwf	28,b	;volatile
  1964                           
  1965                           ;i2c.c: 18:   RD5PPS=0x1C;
  1966   00157E  0E1C               	movlw	28
  1967   001580  6F6F               	movwf	111,b	;volatile
  1968                           
  1969                           ;i2c.c: 19:   RD6PPS=0x1B;
  1970   001582  0E1B               	movlw	27
  1971   001584  6F70               	movwf	112,b	;volatile
  1972   001586                     
  1973                           ; BSR set to: 14
  1974   001586  0012               	return		;funcret
  1975   001588                     __end_of_I2C_2_Master_Init:
  1976                           	callstack 0
  1977                           
  1978 ;; *************** function _Timer0_init *****************
  1979 ;; Defined at:
  1980 ;;		line 60 in file "interrupts.c"
  1981 ;; Parameters:    Size  Location     Type
  1982 ;;		None
  1983 ;; Auto vars:     Size  Location     Type
  1984 ;;		None
  1985 ;; Return value:  Size  Location     Type
  1986 ;;                  1    wreg      void 
  1987 ;; Registers used:
  1988 ;;		wreg, status,2
  1989 ;; Tracked objects:
  1990 ;;		On entry : 0/0
  1991 ;;		On exit  : 0/0
  1992 ;;		Unchanged: 0/0
  1993 ;; Data sizes:     COMRAM   BANK0   BANK1   BANK2   BANK3   BANK4   BANK5   BANK6   BANK7   BANK8   BANK9  BANK10  BANK1
      +1  BANK12  BANK13
  1994 ;;      Params:         0       0       0       0       0       0       0       0       0       0       0       0       
      +0       0       0
  1995 ;;      Locals:         0       0       0       0       0       0       0       0       0       0       0       0       
      +0       0       0
  1996 ;;      Temps:          0       0       0       0       0       0       0       0       0       0       0       0       
      +0       0       0
  1997 ;;      Totals:         0       0       0       0       0       0       0       0       0       0       0       0       
      +0       0       0
  1998 ;;Total ram usage:        0 bytes
  1999 ;; Hardware stack levels used: 1
  2000 ;; Hardware stack levels required when called: 4
  2001 ;; This function calls:
  2002 ;;		Nothing
  2003 ;; This function is called by:
  2004 ;;		_main
  2005 ;; This function uses a non-reentrant model
  2006 ;;
  2007                           
  2008                           	psect	text14
  2009   0015F8                     __ptext14:
  2010                           	callstack 0
  2011   0015F8                     _Timer0_init:
  2012                           	callstack 26
  2013   0015F8                     
  2014                           ;interrupts.c: 62:     T0CON1bits.T0CS=0b010;
  2015   0015F8  50D6               	movf	214,w,c	;volatile
  2016   0015FA  0B1F               	andlw	-225
  2017   0015FC  0940               	iorlw	64
  2018   0015FE  6ED6               	movwf	214,c	;volatile
  2019   001600                     
  2020                           ;interrupts.c: 63:     T0CON1bits.T0ASYNC=1;
  2021   001600  88D6               	bsf	214,4,c	;volatile
  2022                           
  2023                           ;interrupts.c: 64:     T0CON1bits.T0CKPS=0b0000;
  2024   001602  0EF0               	movlw	-16
  2025   001604  16D6               	andwf	214,f,c	;volatile
  2026   001606                     
  2027                           ;interrupts.c: 65:     T0CON0bits.T016BIT=1;
  2028   001606  88D5               	bsf	213,4,c	;volatile
  2029                           
  2030                           ;interrupts.c: 78:     TMR0H=0;
  2031   001608  0E00               	movlw	0
  2032   00160A  6ED4               	movwf	212,c	;volatile
  2033                           
  2034                           ;interrupts.c: 79:     TMR0L=3036;
  2035   00160C  0EDC               	movlw	220
  2036   00160E  6ED3               	movwf	211,c	;volatile
  2037   001610                     
  2038                           ;interrupts.c: 80:     T0CON0bits.T0EN=1;
  2039   001610  8ED5               	bsf	213,7,c	;volatile
  2040   001612  0012               	return		;funcret
  2041   001614                     __end_of_Timer0_init:
  2042                           	callstack 0
  2043                           
  2044 ;; *************** function _LEDturnON *****************
  2045 ;; Defined at:
  2046 ;;		line 23 in file "interact.c"
  2047 ;; Parameters:    Size  Location     Type
  2048 ;;		None
  2049 ;; Auto vars:     Size  Location     Type
  2050 ;;		None
  2051 ;; Return value:  Size  Location     Type
  2052 ;;                  1    wreg      void 
  2053 ;; Registers used:
  2054 ;;		None
  2055 ;; Tracked objects:
  2056 ;;		On entry : 0/0
  2057 ;;		On exit  : 0/0
  2058 ;;		Unchanged: 0/0
  2059 ;; Data sizes:     COMRAM   BANK0   BANK1   BANK2   BANK3   BANK4   BANK5   BANK6   BANK7   BANK8   BANK9  BANK10  BANK1
      +1  BANK12  BANK13
  2060 ;;      Params:         0       0       0       0       0       0       0       0       0       0       0       0       
      +0       0       0
  2061 ;;      Locals:         0       0       0       0       0       0       0       0       0       0       0       0       
      +0       0       0
  2062 ;;      Temps:          0       0       0       0       0       0       0       0       0       0       0       0       
      +0       0       0
  2063 ;;      Totals:         0       0       0       0       0       0       0       0       0       0       0       0       
      +0       0       0
  2064 ;;Total ram usage:        0 bytes
  2065 ;; Hardware stack levels used: 1
  2066 ;; Hardware stack levels required when called: 4
  2067 ;; This function calls:
  2068 ;;		Nothing
  2069 ;; This function is called by:
  2070 ;;		_main
  2071 ;;		_readColors
  2072 ;; This function uses a non-reentrant model
  2073 ;;
  2074                           
  2075                           	psect	text15
  2076   001696                     __ptext15:
  2077                           	callstack 0
  2078   001696                     _LEDturnON:
  2079                           	callstack 26
  2080   001696                     
  2081                           ;interact.c: 24:     LATDbits.LATD3 = 1;
  2082   001696  867C               	bsf	124,3,c	;volatile
  2083                           
  2084                           ;interact.c: 27:     LATGbits.LATG0 = 1;
  2085   001698  807F               	bsf	127,0,c	;volatile
  2086                           
  2087                           ;interact.c: 28:     LATEbits.LATE7 = 1;
  2088   00169A  8E7D               	bsf	125,7,c	;volatile
  2089                           
  2090                           ;interact.c: 29:     LATAbits.LATA3 = 1;
  2091   00169C  8679               	bsf	121,3,c	;volatile
  2092   00169E  0012               	return		;funcret
  2093   0016A0                     __end_of_LEDturnON:
  2094                           	callstack 0
  2095                           
  2096 ;; *************** function _High_ISR *****************
  2097 ;; Defined at:
  2098 ;;		line 83 in file "interrupts.c"
  2099 ;; Parameters:    Size  Location     Type
  2100 ;;		None
  2101 ;; Auto vars:     Size  Location     Type
  2102 ;;		None
  2103 ;; Return value:  Size  Location     Type
  2104 ;;                  1    wreg      void 
  2105 ;; Registers used:
  2106 ;;		wreg, status,2, status,0, cstack
  2107 ;; Tracked objects:
  2108 ;;		On entry : 0/0
  2109 ;;		On exit  : 0/0
  2110 ;;		Unchanged: 0/0
  2111 ;; Data sizes:     COMRAM   BANK0   BANK1   BANK2   BANK3   BANK4   BANK5   BANK6   BANK7   BANK8   BANK9  BANK10  BANK1
      +1  BANK12  BANK13
  2112 ;;      Params:         0       0       0       0       0       0       0       0       0       0       0       0       
      +0       0       0
  2113 ;;      Locals:         0       0       0       0       0       0       0       0       0       0       0       0       
      +0       0       0
  2114 ;;      Temps:          2       0       0       0       0       0       0       0       0       0       0       0       
      +0       0       0
  2115 ;;      Totals:         2       0       0       0       0       0       0       0       0       0       0       0       
      +0       0       0
  2116 ;;Total ram usage:        2 bytes
  2117 ;; Hardware stack levels used: 1
  2118 ;; Hardware stack levels required when called: 3
  2119 ;; This function calls:
  2120 ;;		_LEDturnOFF
  2121 ;;		_readBlueColor
  2122 ;;		_readClearColor
  2123 ;;		_readGreenColor
  2124 ;;		_readRedColor
  2125 ;;		i2_clearInterrupt
  2126 ;; This function is called by:
  2127 ;;		Interrupt level 2
  2128 ;; This function uses a non-reentrant model
  2129 ;;
  2130                           
  2131                           	psect	intcode
  2132   000008                     __pintcode:
  2133                           	callstack 0
  2134   000008                     _High_ISR:
  2135                           	callstack 23
  2136                           
  2137                           ;incstack = 0
  2138   000008  824F               	bsf	int$flags,1,c	;set compiler interrupt flag (level 2)
  2139   00000A                     
  2140                           ;interrupts.c: 84:     if (PIR0bits.INT0IF) {
  2141   00000A  010E               	movlb	14	; () banked
  2142   00000C  A133               	btfss	51,0,b	;volatile
  2143   00000E  EF0B  F000         	goto	i2u56_41
  2144   000012  EF0D  F000         	goto	i2u56_40
  2145   000016                     i2u56_41:
  2146   000016  EF8F  F000         	goto	i2l1799
  2147   00001A                     i2u56_40:
  2148   00001A                     
  2149                           ; BSR set to: 14
  2150                           ;interrupts.c: 92:         if (wall_detected==0) {
  2151   00001A  5040               	movf	_wall_detected^0,w,c
  2152   00001C  A4D8               	btfss	status,2,c
  2153   00001E  EF13  F000         	goto	i2u57_41
  2154   000022  EF15  F000         	goto	i2u57_40
  2155   000026                     i2u57_41:
  2156   000026  EF8B  F000         	goto	i2l1795
  2157   00002A                     i2u57_40:
  2158   00002A                     
  2159                           ; BSR set to: 14
  2160                           ;interrupts.c: 93:             RGBC.clear = readClearColor();
  2161   00002A  EC1F  F00A         	call	_readClearColor	;wreg free
  2162   00002E  C005  F047         	movff	?_readClearColor,_RGBC+6
  2163   000032  C006  F048         	movff	?_readClearColor+1,_RGBC+7
  2164   000036                     
  2165                           ;interrupts.c: 94:             LEDturnOFF();
  2166   000036  EC5F  F00B         	call	_LEDturnOFF	;wreg free
  2167   00003A                     
  2168                           ;interrupts.c: 95:             LATGbits.LATG0 = 1;
  2169   00003A  807F               	bsf	127,0,c	;volatile
  2170   00003C                     
  2171                           ;interrupts.c: 96:             _delay((unsigned long)((100)*(64000000/4000.0)));
  2172   00003C  0E09               	movlw	9
  2173   00003E  6E0D               	movwf	(??_High_ISR+1)^0,c
  2174   000040  0E1E               	movlw	30
  2175   000042  6E0C               	movwf	??_High_ISR^0,c
  2176   000044  0EE4               	movlw	228
  2177   000046                     i2u75_47:
  2178   000046  2EE8               	decfsz	wreg,f,c
  2179   000048  D7FE               	bra	i2u75_47
  2180   00004A  2E0C               	decfsz	??_High_ISR^0,f,c
  2181   00004C  D7FC               	bra	i2u75_47
  2182   00004E  2E0D               	decfsz	(??_High_ISR+1)^0,f,c
  2183   000050  D7FA               	bra	i2u75_47
  2184   000052  D000               	nop2	
  2185   000054                     
  2186                           ;interrupts.c: 97:             RGBC.red = readRedColor();
  2187   000054  ECCF  F009         	call	_readRedColor	;wreg free
  2188   000058  C005  F041         	movff	?_readRedColor,_RGBC
  2189   00005C  C006  F042         	movff	?_readRedColor+1,_RGBC+1
  2190   000060                     
  2191                           ;interrupts.c: 98:             _delay((unsigned long)((100)*(64000000/4000.0)));
  2192   000060  0E09               	movlw	9
  2193   000062  6E0D               	movwf	(??_High_ISR+1)^0,c
  2194   000064  0E1E               	movlw	30
  2195   000066  6E0C               	movwf	??_High_ISR^0,c
  2196   000068  0EE4               	movlw	228
  2197   00006A                     i2u76_47:
  2198   00006A  2EE8               	decfsz	wreg,f,c
  2199   00006C  D7FE               	bra	i2u76_47
  2200   00006E  2E0C               	decfsz	??_High_ISR^0,f,c
  2201   000070  D7FC               	bra	i2u76_47
  2202   000072  2E0D               	decfsz	(??_High_ISR+1)^0,f,c
  2203   000074  D7FA               	bra	i2u76_47
  2204   000076  D000               	nop2	
  2205   000078                     
  2206                           ;interrupts.c: 99:             LATGbits.LATG0 = 0;
  2207   000078  907F               	bcf	127,0,c	;volatile
  2208   00007A                     
  2209                           ;interrupts.c: 100:             LATEbits.LATE7 = 1;
  2210   00007A  8E7D               	bsf	125,7,c	;volatile
  2211   00007C                     
  2212                           ;interrupts.c: 101:             _delay((unsigned long)((100)*(64000000/4000.0)));
  2213   00007C  0E09               	movlw	9
  2214   00007E  6E0D               	movwf	(??_High_ISR+1)^0,c
  2215   000080  0E1E               	movlw	30
  2216   000082  6E0C               	movwf	??_High_ISR^0,c
  2217   000084  0EE4               	movlw	228
  2218   000086                     i2u77_47:
  2219   000086  2EE8               	decfsz	wreg,f,c
  2220   000088  D7FE               	bra	i2u77_47
  2221   00008A  2E0C               	decfsz	??_High_ISR^0,f,c
  2222   00008C  D7FC               	bra	i2u77_47
  2223   00008E  2E0D               	decfsz	(??_High_ISR+1)^0,f,c
  2224   000090  D7FA               	bra	i2u77_47
  2225   000092  D000               	nop2	
  2226   000094                     
  2227                           ;interrupts.c: 102:             RGBC.green = readGreenColor();
  2228   000094  ECF7  F009         	call	_readGreenColor	;wreg free
  2229   000098  C005  F043         	movff	?_readGreenColor,_RGBC+2
  2230   00009C  C006  F044         	movff	?_readGreenColor+1,_RGBC+3
  2231   0000A0                     
  2232                           ;interrupts.c: 103:             _delay((unsigned long)((100)*(64000000/4000.0)));
  2233   0000A0  0E09               	movlw	9
  2234   0000A2  6E0D               	movwf	(??_High_ISR+1)^0,c
  2235   0000A4  0E1E               	movlw	30
  2236   0000A6  6E0C               	movwf	??_High_ISR^0,c
  2237   0000A8  0EE4               	movlw	228
  2238   0000AA                     i2u78_47:
  2239   0000AA  2EE8               	decfsz	wreg,f,c
  2240   0000AC  D7FE               	bra	i2u78_47
  2241   0000AE  2E0C               	decfsz	??_High_ISR^0,f,c
  2242   0000B0  D7FC               	bra	i2u78_47
  2243   0000B2  2E0D               	decfsz	(??_High_ISR+1)^0,f,c
  2244   0000B4  D7FA               	bra	i2u78_47
  2245   0000B6  D000               	nop2	
  2246   0000B8                     
  2247                           ;interrupts.c: 104:             LATEbits.LATE7 = 0;
  2248   0000B8  9E7D               	bcf	125,7,c	;volatile
  2249   0000BA                     
  2250                           ;interrupts.c: 105:             LATAbits.LATA3 = 1;
  2251   0000BA  8679               	bsf	121,3,c	;volatile
  2252   0000BC                     
  2253                           ;interrupts.c: 106:             _delay((unsigned long)((100)*(64000000/4000.0)));
  2254   0000BC  0E09               	movlw	9
  2255   0000BE  6E0D               	movwf	(??_High_ISR+1)^0,c
  2256   0000C0  0E1E               	movlw	30
  2257   0000C2  6E0C               	movwf	??_High_ISR^0,c
  2258   0000C4  0EE4               	movlw	228
  2259   0000C6                     i2u79_47:
  2260   0000C6  2EE8               	decfsz	wreg,f,c
  2261   0000C8  D7FE               	bra	i2u79_47
  2262   0000CA  2E0C               	decfsz	??_High_ISR^0,f,c
  2263   0000CC  D7FC               	bra	i2u79_47
  2264   0000CE  2E0D               	decfsz	(??_High_ISR+1)^0,f,c
  2265   0000D0  D7FA               	bra	i2u79_47
  2266   0000D2  D000               	nop2	
  2267   0000D4                     
  2268                           ;interrupts.c: 107:             RGBC.blue = readBlueColor();
  2269   0000D4  EC47  F00A         	call	_readBlueColor	;wreg free
  2270   0000D8  C005  F045         	movff	?_readBlueColor,_RGBC+4
  2271   0000DC  C006  F046         	movff	?_readBlueColor+1,_RGBC+5
  2272   0000E0                     
  2273                           ;interrupts.c: 108:             _delay((unsigned long)((100)*(64000000/4000.0)));
  2274   0000E0  0E09               	movlw	9
  2275   0000E2  6E0D               	movwf	(??_High_ISR+1)^0,c
  2276   0000E4  0E1E               	movlw	30
  2277   0000E6  6E0C               	movwf	??_High_ISR^0,c
  2278   0000E8  0EE4               	movlw	228
  2279   0000EA                     i2u80_47:
  2280   0000EA  2EE8               	decfsz	wreg,f,c
  2281   0000EC  D7FE               	bra	i2u80_47
  2282   0000EE  2E0C               	decfsz	??_High_ISR^0,f,c
  2283   0000F0  D7FC               	bra	i2u80_47
  2284   0000F2  2E0D               	decfsz	(??_High_ISR+1)^0,f,c
  2285   0000F4  D7FA               	bra	i2u80_47
  2286   0000F6  D000               	nop2	
  2287   0000F8                     
  2288                           ;interrupts.c: 109:             LATAbits.LATA3 = 0;
  2289   0000F8  9679               	bcf	121,3,c	;volatile
  2290   0000FA                     
  2291                           ;interrupts.c: 111:             _delay((unsigned long)((1000)*(64000000/4000.0)));
  2292   0000FA  0E52               	movlw	82
  2293   0000FC  6E0D               	movwf	(??_High_ISR+1)^0,c
  2294   0000FE  0E2B               	movlw	43
  2295   000100  6E0C               	movwf	??_High_ISR^0,c
  2296   000102  0E00               	movlw	0
  2297   000104                     i2u81_47:
  2298   000104  2EE8               	decfsz	wreg,f,c
  2299   000106  D7FE               	bra	i2u81_47
  2300   000108  2E0C               	decfsz	??_High_ISR^0,f,c
  2301   00010A  D7FC               	bra	i2u81_47
  2302   00010C  2E0D               	decfsz	(??_High_ISR+1)^0,f,c
  2303   00010E  D7FA               	bra	i2u81_47
  2304   000110  D000               	nop2	
  2305   000112                     
  2306                           ;interrupts.c: 112:             wall_detected = 1;
  2307   000112  0E01               	movlw	1
  2308   000114  6E40               	movwf	_wall_detected^0,c
  2309   000116                     i2l1795:
  2310                           
  2311                           ;interrupts.c: 116:         clearInterrupt();
  2312   000116  EC20  F00B         	call	i2_clearInterrupt	;wreg free
  2313   00011A                     
  2314                           ;interrupts.c: 118:         PIR0bits.INT0IF = 0;
  2315   00011A  010E               	movlb	14	; () banked
  2316   00011C  9133               	bcf	51,0,b	;volatile
  2317   00011E                     i2l1799:
  2318                           
  2319                           ; BSR set to: 14
  2320                           ;interrupts.c: 121:     if (PIR0bits.TMR0IF) {
  2321   00011E  AB33               	btfss	51,5,b	;volatile
  2322   000120  EF94  F000         	goto	i2u58_41
  2323   000124  EF96  F000         	goto	i2u58_40
  2324   000128                     i2u58_41:
  2325   000128  EF99  F000         	goto	i2l287
  2326   00012C                     i2u58_40:
  2327   00012C                     
  2328                           ; BSR set to: 14
  2329                           ;interrupts.c: 122:         PIR0bits.TMR0IF = 0;
  2330   00012C  9B33               	bcf	51,5,b	;volatile
  2331   00012E                     
  2332                           ; BSR set to: 14
  2333                           ;interrupts.c: 123:         increment++;
  2334   00012E  4A36               	infsnz	_increment^0,f,c
  2335   000130  2A37               	incf	(_increment+1)^0,f,c
  2336   000132                     i2l287:
  2337                           
  2338                           ; BSR set to: 14
  2339   000132  924F               	bcf	int$flags,1,c	;clear compiler interrupt flag (level 2)
  2340   000134  0011               	retfie		f
  2341   000136                     __end_of_High_ISR:
  2342                           	callstack 0
  2343                           
  2344 ;; *************** function i2_clearInterrupt *****************
  2345 ;; Defined at:
  2346 ;;		line 146 in file "interrupts.c"
  2347 ;; Parameters:    Size  Location     Type
  2348 ;;		None
  2349 ;; Auto vars:     Size  Location     Type
  2350 ;;		None
  2351 ;; Return value:  Size  Location     Type
  2352 ;;                  1    wreg      void 
  2353 ;; Registers used:
  2354 ;;		wreg, status,2, status,0, cstack
  2355 ;; Tracked objects:
  2356 ;;		On entry : 0/0
  2357 ;;		On exit  : 0/0
  2358 ;;		Unchanged: 0/0
  2359 ;; Data sizes:     COMRAM   BANK0   BANK1   BANK2   BANK3   BANK4   BANK5   BANK6   BANK7   BANK8   BANK9  BANK10  BANK1
      +1  BANK12  BANK13
  2360 ;;      Params:         0       0       0       0       0       0       0       0       0       0       0       0       
      +0       0       0
  2361 ;;      Locals:         0       0       0       0       0       0       0       0       0       0       0       0       
      +0       0       0
  2362 ;;      Temps:          0       0       0       0       0       0       0       0       0       0       0       0       
      +0       0       0
  2363 ;;      Totals:         0       0       0       0       0       0       0       0       0       0       0       0       
      +0       0       0
  2364 ;;Total ram usage:        0 bytes
  2365 ;; Hardware stack levels used: 1
  2366 ;; Hardware stack levels required when called: 2
  2367 ;; This function calls:
  2368 ;;		i2_I2C_2_Master_Start
  2369 ;;		i2_I2C_2_Master_Stop
  2370 ;;		i2_I2C_2_Master_Write
  2371 ;; This function is called by:
  2372 ;;		_High_ISR
  2373 ;; This function uses a non-reentrant model
  2374 ;;
  2375                           
  2376                           	psect	text17
  2377   001640                     __ptext17:
  2378                           	callstack 0
  2379   001640                     i2_clearInterrupt:
  2380                           	callstack 23
  2381   001640                     
  2382                           ;interrupts.c: 147:     I2C_2_Master_Start();
  2383   001640  EC55  F00B         	call	i2_I2C_2_Master_Start	;wreg free
  2384                           
  2385                           ;interrupts.c: 148:     I2C_2_Master_Write(0x52 | 0x00);
  2386   001644  0E52               	movlw	82
  2387   001646  EC3B  F00B         	call	i2_I2C_2_Master_Write
  2388                           
  2389                           ;interrupts.c: 149:     I2C_2_Master_Write(0xe0 | 0x06 );
  2390   00164A  0EE6               	movlw	230
  2391   00164C  EC3B  F00B         	call	i2_I2C_2_Master_Write
  2392                           
  2393                           ;interrupts.c: 150:     I2C_2_Master_Stop();
  2394   001650  EC50  F00B         	call	i2_I2C_2_Master_Stop	;wreg free
  2395   001654  0012               	return		;funcret
  2396   001656                     __end_ofi2_clearInterrupt:
  2397                           	callstack 0
  2398                           
  2399 ;; *************** function _readRedColor *****************
  2400 ;; Defined at:
  2401 ;;		line 69 in file "color.c"
  2402 ;; Parameters:    Size  Location     Type
  2403 ;;		None
  2404 ;; Auto vars:     Size  Location     Type
  2405 ;;  tmp             2    9[COMRAM] unsigned int 
  2406 ;; Return value:  Size  Location     Type
  2407 ;;                  2    4[COMRAM] unsigned int 
  2408 ;; Registers used:
  2409 ;;		wreg, status,2, status,0, cstack
  2410 ;; Tracked objects:
  2411 ;;		On entry : 0/0
  2412 ;;		On exit  : 0/0
  2413 ;;		Unchanged: 0/0
  2414 ;; Data sizes:     COMRAM   BANK0   BANK1   BANK2   BANK3   BANK4   BANK5   BANK6   BANK7   BANK8   BANK9  BANK10  BANK1
      +1  BANK12  BANK13
  2415 ;;      Params:         2       0       0       0       0       0       0       0       0       0       0       0       
      +0       0       0
  2416 ;;      Locals:         2       0       0       0       0       0       0       0       0       0       0       0       
      +0       0       0
  2417 ;;      Temps:          3       0       0       0       0       0       0       0       0       0       0       0       
      +0       0       0
  2418 ;;      Totals:         7       0       0       0       0       0       0       0       0       0       0       0       
      +0       0       0
  2419 ;;Total ram usage:        7 bytes
  2420 ;; Hardware stack levels used: 1
  2421 ;; Hardware stack levels required when called: 2
  2422 ;; This function calls:
  2423 ;;		_I2C_2_Master_Read
  2424 ;;		_I2C_2_Master_RepStart
  2425 ;;		i2_I2C_2_Master_Start
  2426 ;;		i2_I2C_2_Master_Stop
  2427 ;;		i2_I2C_2_Master_Write
  2428 ;; This function is called by:
  2429 ;;		_High_ISR
  2430 ;;		_readColors
  2431 ;; This function uses a non-reentrant model
  2432 ;;
  2433                           
  2434                           	psect	text18
  2435   00139E                     __ptext18:
  2436                           	callstack 0
  2437   00139E                     _readRedColor:
  2438                           	callstack 23
  2439   00139E                     
  2440                           ;color.c: 71:  unsigned int tmp;;color.c: 72:  I2C_2_Master_Start();
  2441   00139E  EC55  F00B         	call	i2_I2C_2_Master_Start	;wreg free
  2442                           
  2443                           ;color.c: 73:  I2C_2_Master_Write(0x52 | 0x00);
  2444   0013A2  0E52               	movlw	82
  2445   0013A4  EC3B  F00B         	call	i2_I2C_2_Master_Write
  2446                           
  2447                           ;color.c: 74:  I2C_2_Master_Write(0xA0 | 0x16);
  2448   0013A8  0EB6               	movlw	182
  2449   0013AA  EC3B  F00B         	call	i2_I2C_2_Master_Write
  2450                           
  2451                           ;color.c: 75:  I2C_2_Master_RepStart();
  2452   0013AE  EC5A  F00B         	call	_I2C_2_Master_RepStart	;wreg free
  2453                           
  2454                           ;color.c: 76:  I2C_2_Master_Write(0x52 | 0x01);
  2455   0013B2  0E53               	movlw	83
  2456   0013B4  EC3B  F00B         	call	i2_I2C_2_Master_Write
  2457                           
  2458                           ;color.c: 77:  tmp=I2C_2_Master_Read(1);
  2459   0013B8  0E01               	movlw	1
  2460   0013BA  EC6F  F00A         	call	_I2C_2_Master_Read
  2461   0013BE  6E07               	movwf	??_readRedColor^0,c
  2462   0013C0  5007               	movf	??_readRedColor^0,w,c
  2463   0013C2  6E0A               	movwf	readRedColor@tmp^0,c
  2464   0013C4  6A0B               	clrf	(readRedColor@tmp+1)^0,c
  2465                           
  2466                           ;color.c: 78:  tmp=tmp | (I2C_2_Master_Read(0)<<8);
  2467   0013C6  0E00               	movlw	0
  2468   0013C8  EC6F  F00A         	call	_I2C_2_Master_Read
  2469   0013CC  6E07               	movwf	??_readRedColor^0,c
  2470   0013CE  5007               	movf	??_readRedColor^0,w,c
  2471   0013D0  6E09               	movwf	(??_readRedColor+2)^0,c
  2472   0013D2  6A08               	clrf	(??_readRedColor+1)^0,c
  2473   0013D4  500A               	movf	readRedColor@tmp^0,w,c
  2474   0013D6  1008               	iorwf	(??_readRedColor+1)^0,w,c
  2475   0013D8  6E0A               	movwf	readRedColor@tmp^0,c
  2476   0013DA  500B               	movf	(readRedColor@tmp+1)^0,w,c
  2477   0013DC  1009               	iorwf	(??_readRedColor+2)^0,w,c
  2478   0013DE  6E0B               	movwf	(readRedColor@tmp+1)^0,c
  2479                           
  2480                           ;color.c: 79:  I2C_2_Master_Stop();
  2481   0013E0  EC50  F00B         	call	i2_I2C_2_Master_Stop	;wreg free
  2482   0013E4                     
  2483                           ;color.c: 80:  return tmp;
  2484   0013E4  C00A  F005         	movff	readRedColor@tmp,?_readRedColor
  2485   0013E8  C00B  F006         	movff	readRedColor@tmp+1,?_readRedColor+1
  2486   0013EC  0012               	return		;funcret
  2487   0013EE                     __end_of_readRedColor:
  2488                           	callstack 0
  2489                           
  2490 ;; *************** function _readGreenColor *****************
  2491 ;; Defined at:
  2492 ;;		line 83 in file "color.c"
  2493 ;; Parameters:    Size  Location     Type
  2494 ;;		None
  2495 ;; Auto vars:     Size  Location     Type
  2496 ;;  tmp             2    9[COMRAM] unsigned int 
  2497 ;; Return value:  Size  Location     Type
  2498 ;;                  2    4[COMRAM] unsigned int 
  2499 ;; Registers used:
  2500 ;;		wreg, status,2, status,0, cstack
  2501 ;; Tracked objects:
  2502 ;;		On entry : 0/0
  2503 ;;		On exit  : 0/0
  2504 ;;		Unchanged: 0/0
  2505 ;; Data sizes:     COMRAM   BANK0   BANK1   BANK2   BANK3   BANK4   BANK5   BANK6   BANK7   BANK8   BANK9  BANK10  BANK1
      +1  BANK12  BANK13
  2506 ;;      Params:         2       0       0       0       0       0       0       0       0       0       0       0       
      +0       0       0
  2507 ;;      Locals:         2       0       0       0       0       0       0       0       0       0       0       0       
      +0       0       0
  2508 ;;      Temps:          3       0       0       0       0       0       0       0       0       0       0       0       
      +0       0       0
  2509 ;;      Totals:         7       0       0       0       0       0       0       0       0       0       0       0       
      +0       0       0
  2510 ;;Total ram usage:        7 bytes
  2511 ;; Hardware stack levels used: 1
  2512 ;; Hardware stack levels required when called: 2
  2513 ;; This function calls:
  2514 ;;		_I2C_2_Master_Read
  2515 ;;		_I2C_2_Master_RepStart
  2516 ;;		i2_I2C_2_Master_Start
  2517 ;;		i2_I2C_2_Master_Stop
  2518 ;;		i2_I2C_2_Master_Write
  2519 ;; This function is called by:
  2520 ;;		_High_ISR
  2521 ;;		_readColors
  2522 ;; This function uses a non-reentrant model
  2523 ;;
  2524                           
  2525                           	psect	text19
  2526   0013EE                     __ptext19:
  2527                           	callstack 0
  2528   0013EE                     _readGreenColor:
  2529                           	callstack 23
  2530   0013EE                     
  2531                           ;color.c: 85:  unsigned int tmp;;color.c: 86:  I2C_2_Master_Start();
  2532   0013EE  EC55  F00B         	call	i2_I2C_2_Master_Start	;wreg free
  2533                           
  2534                           ;color.c: 87:  I2C_2_Master_Write(0x52 | 0x00);
  2535   0013F2  0E52               	movlw	82
  2536   0013F4  EC3B  F00B         	call	i2_I2C_2_Master_Write
  2537                           
  2538                           ;color.c: 88:  I2C_2_Master_Write(0xA0 | 0x18);
  2539   0013F8  0EB8               	movlw	184
  2540   0013FA  EC3B  F00B         	call	i2_I2C_2_Master_Write
  2541                           
  2542                           ;color.c: 89:  I2C_2_Master_RepStart();
  2543   0013FE  EC5A  F00B         	call	_I2C_2_Master_RepStart	;wreg free
  2544                           
  2545                           ;color.c: 90:  I2C_2_Master_Write(0x52 | 0x01);
  2546   001402  0E53               	movlw	83
  2547   001404  EC3B  F00B         	call	i2_I2C_2_Master_Write
  2548                           
  2549                           ;color.c: 91:  tmp=I2C_2_Master_Read(1);
  2550   001408  0E01               	movlw	1
  2551   00140A  EC6F  F00A         	call	_I2C_2_Master_Read
  2552   00140E  6E07               	movwf	??_readGreenColor^0,c
  2553   001410  5007               	movf	??_readGreenColor^0,w,c
  2554   001412  6E0A               	movwf	readGreenColor@tmp^0,c
  2555   001414  6A0B               	clrf	(readGreenColor@tmp+1)^0,c
  2556                           
  2557                           ;color.c: 92:  tmp=tmp | (I2C_2_Master_Read(0)<<8);
  2558   001416  0E00               	movlw	0
  2559   001418  EC6F  F00A         	call	_I2C_2_Master_Read
  2560   00141C  6E07               	movwf	??_readGreenColor^0,c
  2561   00141E  5007               	movf	??_readGreenColor^0,w,c
  2562   001420  6E09               	movwf	(??_readGreenColor+2)^0,c
  2563   001422  6A08               	clrf	(??_readGreenColor+1)^0,c
  2564   001424  500A               	movf	readGreenColor@tmp^0,w,c
  2565   001426  1008               	iorwf	(??_readGreenColor+1)^0,w,c
  2566   001428  6E0A               	movwf	readGreenColor@tmp^0,c
  2567   00142A  500B               	movf	(readGreenColor@tmp+1)^0,w,c
  2568   00142C  1009               	iorwf	(??_readGreenColor+2)^0,w,c
  2569   00142E  6E0B               	movwf	(readGreenColor@tmp+1)^0,c
  2570                           
  2571                           ;color.c: 93:  I2C_2_Master_Stop();
  2572   001430  EC50  F00B         	call	i2_I2C_2_Master_Stop	;wreg free
  2573   001434                     
  2574                           ;color.c: 94:  return tmp;
  2575   001434  C00A  F005         	movff	readGreenColor@tmp,?_readGreenColor
  2576   001438  C00B  F006         	movff	readGreenColor@tmp+1,?_readGreenColor+1
  2577   00143C  0012               	return		;funcret
  2578   00143E                     __end_of_readGreenColor:
  2579                           	callstack 0
  2580                           
  2581 ;; *************** function _readClearColor *****************
  2582 ;; Defined at:
  2583 ;;		line 111 in file "color.c"
  2584 ;; Parameters:    Size  Location     Type
  2585 ;;		None
  2586 ;; Auto vars:     Size  Location     Type
  2587 ;;  tmp             2    9[COMRAM] unsigned int 
  2588 ;; Return value:  Size  Location     Type
  2589 ;;                  2    4[COMRAM] unsigned int 
  2590 ;; Registers used:
  2591 ;;		wreg, status,2, status,0, cstack
  2592 ;; Tracked objects:
  2593 ;;		On entry : 0/0
  2594 ;;		On exit  : 0/0
  2595 ;;		Unchanged: 0/0
  2596 ;; Data sizes:     COMRAM   BANK0   BANK1   BANK2   BANK3   BANK4   BANK5   BANK6   BANK7   BANK8   BANK9  BANK10  BANK1
      +1  BANK12  BANK13
  2597 ;;      Params:         2       0       0       0       0       0       0       0       0       0       0       0       
      +0       0       0
  2598 ;;      Locals:         2       0       0       0       0       0       0       0       0       0       0       0       
      +0       0       0
  2599 ;;      Temps:          3       0       0       0       0       0       0       0       0       0       0       0       
      +0       0       0
  2600 ;;      Totals:         7       0       0       0       0       0       0       0       0       0       0       0       
      +0       0       0
  2601 ;;Total ram usage:        7 bytes
  2602 ;; Hardware stack levels used: 1
  2603 ;; Hardware stack levels required when called: 2
  2604 ;; This function calls:
  2605 ;;		_I2C_2_Master_Read
  2606 ;;		_I2C_2_Master_RepStart
  2607 ;;		i2_I2C_2_Master_Start
  2608 ;;		i2_I2C_2_Master_Stop
  2609 ;;		i2_I2C_2_Master_Write
  2610 ;; This function is called by:
  2611 ;;		_High_ISR
  2612 ;;		_readColors
  2613 ;; This function uses a non-reentrant model
  2614 ;;
  2615                           
  2616                           	psect	text20
  2617   00143E                     __ptext20:
  2618                           	callstack 0
  2619   00143E                     _readClearColor:
  2620                           	callstack 23
  2621   00143E                     
  2622                           ;color.c: 113:  unsigned int tmp;;color.c: 114:  I2C_2_Master_Start();
  2623   00143E  EC55  F00B         	call	i2_I2C_2_Master_Start	;wreg free
  2624                           
  2625                           ;color.c: 115:  I2C_2_Master_Write(0x52 | 0x00);
  2626   001442  0E52               	movlw	82
  2627   001444  EC3B  F00B         	call	i2_I2C_2_Master_Write
  2628                           
  2629                           ;color.c: 116:  I2C_2_Master_Write(0xA0 | 0x14);
  2630   001448  0EB4               	movlw	180
  2631   00144A  EC3B  F00B         	call	i2_I2C_2_Master_Write
  2632                           
  2633                           ;color.c: 117:  I2C_2_Master_RepStart();
  2634   00144E  EC5A  F00B         	call	_I2C_2_Master_RepStart	;wreg free
  2635                           
  2636                           ;color.c: 118:  I2C_2_Master_Write(0x52 | 0x01);
  2637   001452  0E53               	movlw	83
  2638   001454  EC3B  F00B         	call	i2_I2C_2_Master_Write
  2639                           
  2640                           ;color.c: 119:  tmp=I2C_2_Master_Read(1);
  2641   001458  0E01               	movlw	1
  2642   00145A  EC6F  F00A         	call	_I2C_2_Master_Read
  2643   00145E  6E07               	movwf	??_readClearColor^0,c
  2644   001460  5007               	movf	??_readClearColor^0,w,c
  2645   001462  6E0A               	movwf	readClearColor@tmp^0,c
  2646   001464  6A0B               	clrf	(readClearColor@tmp+1)^0,c
  2647                           
  2648                           ;color.c: 120:  tmp=tmp | (I2C_2_Master_Read(0)<<8);
  2649   001466  0E00               	movlw	0
  2650   001468  EC6F  F00A         	call	_I2C_2_Master_Read
  2651   00146C  6E07               	movwf	??_readClearColor^0,c
  2652   00146E  5007               	movf	??_readClearColor^0,w,c
  2653   001470  6E09               	movwf	(??_readClearColor+2)^0,c
  2654   001472  6A08               	clrf	(??_readClearColor+1)^0,c
  2655   001474  500A               	movf	readClearColor@tmp^0,w,c
  2656   001476  1008               	iorwf	(??_readClearColor+1)^0,w,c
  2657   001478  6E0A               	movwf	readClearColor@tmp^0,c
  2658   00147A  500B               	movf	(readClearColor@tmp+1)^0,w,c
  2659   00147C  1009               	iorwf	(??_readClearColor+2)^0,w,c
  2660   00147E  6E0B               	movwf	(readClearColor@tmp+1)^0,c
  2661                           
  2662                           ;color.c: 121:  I2C_2_Master_Stop();
  2663   001480  EC50  F00B         	call	i2_I2C_2_Master_Stop	;wreg free
  2664   001484                     
  2665                           ;color.c: 122:  return tmp;
  2666   001484  C00A  F005         	movff	readClearColor@tmp,?_readClearColor
  2667   001488  C00B  F006         	movff	readClearColor@tmp+1,?_readClearColor+1
  2668   00148C  0012               	return		;funcret
  2669   00148E                     __end_of_readClearColor:
  2670                           	callstack 0
  2671                           
  2672 ;; *************** function _readBlueColor *****************
  2673 ;; Defined at:
  2674 ;;		line 97 in file "color.c"
  2675 ;; Parameters:    Size  Location     Type
  2676 ;;		None
  2677 ;; Auto vars:     Size  Location     Type
  2678 ;;  tmp             2    9[COMRAM] unsigned int 
  2679 ;; Return value:  Size  Location     Type
  2680 ;;                  2    4[COMRAM] unsigned int 
  2681 ;; Registers used:
  2682 ;;		wreg, status,2, status,0, cstack
  2683 ;; Tracked objects:
  2684 ;;		On entry : 0/0
  2685 ;;		On exit  : 0/0
  2686 ;;		Unchanged: 0/0
  2687 ;; Data sizes:     COMRAM   BANK0   BANK1   BANK2   BANK3   BANK4   BANK5   BANK6   BANK7   BANK8   BANK9  BANK10  BANK1
      +1  BANK12  BANK13
  2688 ;;      Params:         2       0       0       0       0       0       0       0       0       0       0       0       
      +0       0       0
  2689 ;;      Locals:         2       0       0       0       0       0       0       0       0       0       0       0       
      +0       0       0
  2690 ;;      Temps:          3       0       0       0       0       0       0       0       0       0       0       0       
      +0       0       0
  2691 ;;      Totals:         7       0       0       0       0       0       0       0       0       0       0       0       
      +0       0       0
  2692 ;;Total ram usage:        7 bytes
  2693 ;; Hardware stack levels used: 1
  2694 ;; Hardware stack levels required when called: 2
  2695 ;; This function calls:
  2696 ;;		_I2C_2_Master_Read
  2697 ;;		_I2C_2_Master_RepStart
  2698 ;;		i2_I2C_2_Master_Start
  2699 ;;		i2_I2C_2_Master_Stop
  2700 ;;		i2_I2C_2_Master_Write
  2701 ;; This function is called by:
  2702 ;;		_High_ISR
  2703 ;;		_readColors
  2704 ;; This function uses a non-reentrant model
  2705 ;;
  2706                           
  2707                           	psect	text21
  2708   00148E                     __ptext21:
  2709                           	callstack 0
  2710   00148E                     _readBlueColor:
  2711                           	callstack 23
  2712   00148E                     
  2713                           ;color.c: 99:  unsigned int tmp;;color.c: 100:  I2C_2_Master_Start();
  2714   00148E  EC55  F00B         	call	i2_I2C_2_Master_Start	;wreg free
  2715                           
  2716                           ;color.c: 101:  I2C_2_Master_Write(0x52 | 0x00);
  2717   001492  0E52               	movlw	82
  2718   001494  EC3B  F00B         	call	i2_I2C_2_Master_Write
  2719                           
  2720                           ;color.c: 102:  I2C_2_Master_Write(0xA0 | 0x1A);
  2721   001498  0EBA               	movlw	186
  2722   00149A  EC3B  F00B         	call	i2_I2C_2_Master_Write
  2723                           
  2724                           ;color.c: 103:  I2C_2_Master_RepStart();
  2725   00149E  EC5A  F00B         	call	_I2C_2_Master_RepStart	;wreg free
  2726                           
  2727                           ;color.c: 104:  I2C_2_Master_Write(0x52 | 0x01);
  2728   0014A2  0E53               	movlw	83
  2729   0014A4  EC3B  F00B         	call	i2_I2C_2_Master_Write
  2730                           
  2731                           ;color.c: 105:  tmp=I2C_2_Master_Read(1);
  2732   0014A8  0E01               	movlw	1
  2733   0014AA  EC6F  F00A         	call	_I2C_2_Master_Read
  2734   0014AE  6E07               	movwf	??_readBlueColor^0,c
  2735   0014B0  5007               	movf	??_readBlueColor^0,w,c
  2736   0014B2  6E0A               	movwf	readBlueColor@tmp^0,c
  2737   0014B4  6A0B               	clrf	(readBlueColor@tmp+1)^0,c
  2738                           
  2739                           ;color.c: 106:  tmp=tmp | (I2C_2_Master_Read(0)<<8);
  2740   0014B6  0E00               	movlw	0
  2741   0014B8  EC6F  F00A         	call	_I2C_2_Master_Read
  2742   0014BC  6E07               	movwf	??_readBlueColor^0,c
  2743   0014BE  5007               	movf	??_readBlueColor^0,w,c
  2744   0014C0  6E09               	movwf	(??_readBlueColor+2)^0,c
  2745   0014C2  6A08               	clrf	(??_readBlueColor+1)^0,c
  2746   0014C4  500A               	movf	readBlueColor@tmp^0,w,c
  2747   0014C6  1008               	iorwf	(??_readBlueColor+1)^0,w,c
  2748   0014C8  6E0A               	movwf	readBlueColor@tmp^0,c
  2749   0014CA  500B               	movf	(readBlueColor@tmp+1)^0,w,c
  2750   0014CC  1009               	iorwf	(??_readBlueColor+2)^0,w,c
  2751   0014CE  6E0B               	movwf	(readBlueColor@tmp+1)^0,c
  2752                           
  2753                           ;color.c: 107:  I2C_2_Master_Stop();
  2754   0014D0  EC50  F00B         	call	i2_I2C_2_Master_Stop	;wreg free
  2755   0014D4                     
  2756                           ;color.c: 108:  return tmp;
  2757   0014D4  C00A  F005         	movff	readBlueColor@tmp,?_readBlueColor
  2758   0014D8  C00B  F006         	movff	readBlueColor@tmp+1,?_readBlueColor+1
  2759   0014DC  0012               	return		;funcret
  2760   0014DE                     __end_of_readBlueColor:
  2761                           	callstack 0
  2762                           
  2763 ;; *************** function i2_I2C_2_Master_Write *****************
  2764 ;; Defined at:
  2765 ;;		line 45 in file "i2c.c"
  2766 ;; Parameters:    Size  Location     Type
  2767 ;;  data_byte       1    wreg     unsigned char 
  2768 ;; Auto vars:     Size  Location     Type
  2769 ;;  data_byte       1    1[COMRAM] unsigned char 
  2770 ;; Return value:  Size  Location     Type
  2771 ;;                  1    wreg      void 
  2772 ;; Registers used:
  2773 ;;		wreg, status,2, status,0, cstack
  2774 ;; Tracked objects:
  2775 ;;		On entry : 0/0
  2776 ;;		On exit  : 0/0
  2777 ;;		Unchanged: 0/0
  2778 ;; Data sizes:     COMRAM   BANK0   BANK1   BANK2   BANK3   BANK4   BANK5   BANK6   BANK7   BANK8   BANK9  BANK10  BANK1
      +1  BANK12  BANK13
  2779 ;;      Params:         0       0       0       0       0       0       0       0       0       0       0       0       
      +0       0       0
  2780 ;;      Locals:         1       0       0       0       0       0       0       0       0       0       0       0       
      +0       0       0
  2781 ;;      Temps:          0       0       0       0       0       0       0       0       0       0       0       0       
      +0       0       0
  2782 ;;      Totals:         1       0       0       0       0       0       0       0       0       0       0       0       
      +0       0       0
  2783 ;;Total ram usage:        1 bytes
  2784 ;; Hardware stack levels used: 1
  2785 ;; Hardware stack levels required when called: 1
  2786 ;; This function calls:
  2787 ;;		i2_I2C_2_Master_Idle
  2788 ;; This function is called by:
  2789 ;;		_readRedColor
  2790 ;;		_readGreenColor
  2791 ;;		_readBlueColor
  2792 ;;		_readClearColor
  2793 ;;		i2_clearInterrupt
  2794 ;; This function uses a non-reentrant model
  2795 ;;
  2796                           
  2797                           	psect	text22
  2798   001676                     __ptext22:
  2799                           	callstack 0
  2800   001676                     i2_I2C_2_Master_Write:
  2801                           	callstack 23
  2802                           
  2803                           ;incstack = 0
  2804                           ;i2I2C_2_Master_Write@data_byte stored from wreg
  2805   001676  6E02               	movwf	i2I2C_2_Master_Write@data_byte^0,c
  2806   001678                     
  2807                           ;i2c.c: 45: void I2C_2_Master_Write(unsigned char data_byte);i2c.c: 46: {;i2c.c: 47:   I
      +                          2C_2_Master_Idle();
  2808   001678  ECD8  F00A         	call	i2_I2C_2_Master_Idle	;wreg free
  2809   00167C                     
  2810                           ;i2c.c: 48:   SSP2BUF = data_byte;
  2811   00167C  C002  FED5         	movff	i2I2C_2_Master_Write@data_byte,3797	;volatile
  2812   001680  0012               	return		;funcret
  2813   001682                     __end_ofi2_I2C_2_Master_Write:
  2814                           	callstack 0
  2815                           
  2816 ;; *************** function i2_I2C_2_Master_Stop *****************
  2817 ;; Defined at:
  2818 ;;		line 39 in file "i2c.c"
  2819 ;; Parameters:    Size  Location     Type
  2820 ;;		None
  2821 ;; Auto vars:     Size  Location     Type
  2822 ;;		None
  2823 ;; Return value:  Size  Location     Type
  2824 ;;                  1    wreg      void 
  2825 ;; Registers used:
  2826 ;;		wreg, status,2, status,0, cstack
  2827 ;; Tracked objects:
  2828 ;;		On entry : 0/0
  2829 ;;		On exit  : 0/0
  2830 ;;		Unchanged: 0/0
  2831 ;; Data sizes:     COMRAM   BANK0   BANK1   BANK2   BANK3   BANK4   BANK5   BANK6   BANK7   BANK8   BANK9  BANK10  BANK1
      +1  BANK12  BANK13
  2832 ;;      Params:         0       0       0       0       0       0       0       0       0       0       0       0       
      +0       0       0
  2833 ;;      Locals:         0       0       0       0       0       0       0       0       0       0       0       0       
      +0       0       0
  2834 ;;      Temps:          0       0       0       0       0       0       0       0       0       0       0       0       
      +0       0       0
  2835 ;;      Totals:         0       0       0       0       0       0       0       0       0       0       0       0       
      +0       0       0
  2836 ;;Total ram usage:        0 bytes
  2837 ;; Hardware stack levels used: 1
  2838 ;; Hardware stack levels required when called: 1
  2839 ;; This function calls:
  2840 ;;		i2_I2C_2_Master_Idle
  2841 ;; This function is called by:
  2842 ;;		_readRedColor
  2843 ;;		_readGreenColor
  2844 ;;		_readBlueColor
  2845 ;;		_readClearColor
  2846 ;;		i2_clearInterrupt
  2847 ;; This function uses a non-reentrant model
  2848 ;;
  2849                           
  2850                           	psect	text23
  2851   0016A0                     __ptext23:
  2852                           	callstack 0
  2853   0016A0                     i2_I2C_2_Master_Stop:
  2854                           	callstack 23
  2855   0016A0                     
  2856                           ;i2c.c: 41:   I2C_2_Master_Idle();
  2857   0016A0  ECD8  F00A         	call	i2_I2C_2_Master_Idle	;wreg free
  2858   0016A4                     
  2859                           ;i2c.c: 42:   SSP2CON2bits.PEN = 1;
  2860   0016A4  010E               	movlb	14	; () banked
  2861   0016A6  85DA               	bsf	218,2,b	;volatile
  2862   0016A8                     
  2863                           ; BSR set to: 14
  2864   0016A8  0012               	return		;funcret
  2865   0016AA                     __end_ofi2_I2C_2_Master_Stop:
  2866                           	callstack 0
  2867                           
  2868 ;; *************** function i2_I2C_2_Master_Start *****************
  2869 ;; Defined at:
  2870 ;;		line 27 in file "i2c.c"
  2871 ;; Parameters:    Size  Location     Type
  2872 ;;		None
  2873 ;; Auto vars:     Size  Location     Type
  2874 ;;		None
  2875 ;; Return value:  Size  Location     Type
  2876 ;;                  1    wreg      void 
  2877 ;; Registers used:
  2878 ;;		wreg, status,2, status,0, cstack
  2879 ;; Tracked objects:
  2880 ;;		On entry : 0/0
  2881 ;;		On exit  : 0/0
  2882 ;;		Unchanged: 0/0
  2883 ;; Data sizes:     COMRAM   BANK0   BANK1   BANK2   BANK3   BANK4   BANK5   BANK6   BANK7   BANK8   BANK9  BANK10  BANK1
      +1  BANK12  BANK13
  2884 ;;      Params:         0       0       0       0       0       0       0       0       0       0       0       0       
      +0       0       0
  2885 ;;      Locals:         0       0       0       0       0       0       0       0       0       0       0       0       
      +0       0       0
  2886 ;;      Temps:          0       0       0       0       0       0       0       0       0       0       0       0       
      +0       0       0
  2887 ;;      Totals:         0       0       0       0       0       0       0       0       0       0       0       0       
      +0       0       0
  2888 ;;Total ram usage:        0 bytes
  2889 ;; Hardware stack levels used: 1
  2890 ;; Hardware stack levels required when called: 1
  2891 ;; This function calls:
  2892 ;;		i2_I2C_2_Master_Idle
  2893 ;; This function is called by:
  2894 ;;		_readRedColor
  2895 ;;		_readGreenColor
  2896 ;;		_readBlueColor
  2897 ;;		_readClearColor
  2898 ;;		i2_clearInterrupt
  2899 ;; This function uses a non-reentrant model
  2900 ;;
  2901                           
  2902                           	psect	text24
  2903   0016AA                     __ptext24:
  2904                           	callstack 0
  2905   0016AA                     i2_I2C_2_Master_Start:
  2906                           	callstack 23
  2907   0016AA                     
  2908                           ;i2c.c: 29:   I2C_2_Master_Idle();
  2909   0016AA  ECD8  F00A         	call	i2_I2C_2_Master_Idle	;wreg free
  2910   0016AE                     
  2911                           ;i2c.c: 30:   SSP2CON2bits.SEN = 1;
  2912   0016AE  010E               	movlb	14	; () banked
  2913   0016B0  81DA               	bsf	218,0,b	;volatile
  2914   0016B2                     
  2915                           ; BSR set to: 14
  2916   0016B2  0012               	return		;funcret
  2917   0016B4                     __end_ofi2_I2C_2_Master_Start:
  2918                           	callstack 0
  2919                           
  2920 ;; *************** function _I2C_2_Master_RepStart *****************
  2921 ;; Defined at:
  2922 ;;		line 33 in file "i2c.c"
  2923 ;; Parameters:    Size  Location     Type
  2924 ;;		None
  2925 ;; Auto vars:     Size  Location     Type
  2926 ;;		None
  2927 ;; Return value:  Size  Location     Type
  2928 ;;                  1    wreg      void 
  2929 ;; Registers used:
  2930 ;;		wreg, status,2, status,0, cstack
  2931 ;; Tracked objects:
  2932 ;;		On entry : 0/0
  2933 ;;		On exit  : 0/0
  2934 ;;		Unchanged: 0/0
  2935 ;; Data sizes:     COMRAM   BANK0   BANK1   BANK2   BANK3   BANK4   BANK5   BANK6   BANK7   BANK8   BANK9  BANK10  BANK1
      +1  BANK12  BANK13
  2936 ;;      Params:         0       0       0       0       0       0       0       0       0       0       0       0       
      +0       0       0
  2937 ;;      Locals:         0       0       0       0       0       0       0       0       0       0       0       0       
      +0       0       0
  2938 ;;      Temps:          0       0       0       0       0       0       0       0       0       0       0       0       
      +0       0       0
  2939 ;;      Totals:         0       0       0       0       0       0       0       0       0       0       0       0       
      +0       0       0
  2940 ;;Total ram usage:        0 bytes
  2941 ;; Hardware stack levels used: 1
  2942 ;; Hardware stack levels required when called: 1
  2943 ;; This function calls:
  2944 ;;		i2_I2C_2_Master_Idle
  2945 ;; This function is called by:
  2946 ;;		_readRedColor
  2947 ;;		_readGreenColor
  2948 ;;		_readBlueColor
  2949 ;;		_readClearColor
  2950 ;;		_color_readdoublefromaddress
  2951 ;;		_color_readfromaddress
  2952 ;; This function uses a non-reentrant model
  2953 ;;
  2954                           
  2955                           	psect	text25
  2956   0016B4                     __ptext25:
  2957                           	callstack 0
  2958   0016B4                     _I2C_2_Master_RepStart:
  2959                           	callstack 23
  2960   0016B4                     
  2961                           ;i2c.c: 35:   I2C_2_Master_Idle();
  2962   0016B4  ECD8  F00A         	call	i2_I2C_2_Master_Idle	;wreg free
  2963   0016B8                     
  2964                           ;i2c.c: 36:   SSP2CON2bits.RSEN = 1;
  2965   0016B8  010E               	movlb	14	; () banked
  2966   0016BA  83DA               	bsf	218,1,b	;volatile
  2967   0016BC                     
  2968                           ; BSR set to: 14
  2969   0016BC  0012               	return		;funcret
  2970   0016BE                     __end_of_I2C_2_Master_RepStart:
  2971                           	callstack 0
  2972                           
  2973 ;; *************** function _I2C_2_Master_Read *****************
  2974 ;; Defined at:
  2975 ;;		line 51 in file "i2c.c"
  2976 ;; Parameters:    Size  Location     Type
  2977 ;;  ack             1    wreg     unsigned char 
  2978 ;; Auto vars:     Size  Location     Type
  2979 ;;  ack             1    2[COMRAM] unsigned char 
  2980 ;;  tmp             1    3[COMRAM] unsigned char 
  2981 ;; Return value:  Size  Location     Type
  2982 ;;                  1    wreg      unsigned char 
  2983 ;; Registers used:
  2984 ;;		wreg, status,2, status,0, cstack
  2985 ;; Tracked objects:
  2986 ;;		On entry : 0/0
  2987 ;;		On exit  : 0/0
  2988 ;;		Unchanged: 0/0
  2989 ;; Data sizes:     COMRAM   BANK0   BANK1   BANK2   BANK3   BANK4   BANK5   BANK6   BANK7   BANK8   BANK9  BANK10  BANK1
      +1  BANK12  BANK13
  2990 ;;      Params:         0       0       0       0       0       0       0       0       0       0       0       0       
      +0       0       0
  2991 ;;      Locals:         2       0       0       0       0       0       0       0       0       0       0       0       
      +0       0       0
  2992 ;;      Temps:          1       0       0       0       0       0       0       0       0       0       0       0       
      +0       0       0
  2993 ;;      Totals:         3       0       0       0       0       0       0       0       0       0       0       0       
      +0       0       0
  2994 ;;Total ram usage:        3 bytes
  2995 ;; Hardware stack levels used: 1
  2996 ;; Hardware stack levels required when called: 1
  2997 ;; This function calls:
  2998 ;;		i2_I2C_2_Master_Idle
  2999 ;; This function is called by:
  3000 ;;		_readRedColor
  3001 ;;		_readGreenColor
  3002 ;;		_readBlueColor
  3003 ;;		_readClearColor
  3004 ;;		_color_readdoublefromaddress
  3005 ;;		_color_readfromaddress
  3006 ;; This function uses a non-reentrant model
  3007 ;;
  3008                           
  3009                           	psect	text26
  3010   0014DE                     __ptext26:
  3011                           	callstack 0
  3012   0014DE                     _I2C_2_Master_Read:
  3013                           	callstack 23
  3014                           
  3015                           ; BSR set to: 14
  3016                           ;incstack = 0
  3017                           ;I2C_2_Master_Read@ack stored from wreg
  3018   0014DE  6E03               	movwf	I2C_2_Master_Read@ack^0,c
  3019   0014E0                     
  3020                           ;i2c.c: 51: unsigned char I2C_2_Master_Read(unsigned char ack);i2c.c: 52: {;i2c.c: 53:  
      +                           unsigned char tmp;;i2c.c: 54:   I2C_2_Master_Idle();
  3021   0014E0  ECD8  F00A         	call	i2_I2C_2_Master_Idle	;wreg free
  3022   0014E4                     
  3023                           ;i2c.c: 55:   SSP2CON2bits.RCEN = 1;
  3024   0014E4  010E               	movlb	14	; () banked
  3025   0014E6  87DA               	bsf	218,3,b	;volatile
  3026                           
  3027                           ;i2c.c: 56:   I2C_2_Master_Idle();
  3028   0014E8  ECD8  F00A         	call	i2_I2C_2_Master_Idle	;wreg free
  3029   0014EC                     
  3030                           ;i2c.c: 57:   tmp = SSP2BUF;
  3031   0014EC  CED5 F004          	movff	3797,I2C_2_Master_Read@tmp	;volatile
  3032                           
  3033                           ;i2c.c: 58:   I2C_2_Master_Idle();
  3034   0014F0  ECD8  F00A         	call	i2_I2C_2_Master_Idle	;wreg free
  3035   0014F4                     
  3036                           ;i2c.c: 59:   SSP2CON2bits.ACKDT = !ack;
  3037   0014F4  5003               	movf	I2C_2_Master_Read@ack^0,w,c
  3038   0014F6  B4D8               	btfsc	status,2,c
  3039   0014F8  EF80  F00A         	goto	i2u34_41
  3040   0014FC  EF84  F00A         	goto	i2u34_40
  3041   001500                     i2u34_41:
  3042   001500  6A02               	clrf	??_I2C_2_Master_Read^0,c
  3043   001502  2A02               	incf	??_I2C_2_Master_Read^0,f,c
  3044   001504  EF85  F00A         	goto	i2u35_48
  3045   001508                     i2u34_40:
  3046   001508  6A02               	clrf	??_I2C_2_Master_Read^0,c
  3047   00150A                     i2u35_48:
  3048   00150A  3A02               	swapf	??_I2C_2_Master_Read^0,f,c
  3049   00150C  4602               	rlncf	??_I2C_2_Master_Read^0,f,c
  3050   00150E  010E               	movlb	14	; () banked
  3051   001510  51DA               	movf	218,w,b	;volatile
  3052   001512  1802               	xorwf	??_I2C_2_Master_Read^0,w,c
  3053   001514  0BDF               	andlw	-33
  3054   001516  1802               	xorwf	??_I2C_2_Master_Read^0,w,c
  3055   001518  6FDA               	movwf	218,b	;volatile
  3056   00151A                     
  3057                           ; BSR set to: 14
  3058                           ;i2c.c: 60:   SSP2CON2bits.ACKEN = 1;
  3059   00151A  89DA               	bsf	218,4,b	;volatile
  3060   00151C                     
  3061                           ; BSR set to: 14
  3062                           ;i2c.c: 61:   return tmp;
  3063   00151C  5004               	movf	I2C_2_Master_Read@tmp^0,w,c
  3064   00151E                     
  3065                           ; BSR set to: 14
  3066   00151E  0012               	return		;funcret
  3067   001520                     __end_of_I2C_2_Master_Read:
  3068                           	callstack 0
  3069                           
  3070 ;; *************** function i2_I2C_2_Master_Idle *****************
  3071 ;; Defined at:
  3072 ;;		line 22 in file "i2c.c"
  3073 ;; Parameters:    Size  Location     Type
  3074 ;;		None
  3075 ;; Auto vars:     Size  Location     Type
  3076 ;;		None
  3077 ;; Return value:  Size  Location     Type
  3078 ;;                  1    wreg      void 
  3079 ;; Registers used:
  3080 ;;		wreg, status,2, status,0
  3081 ;; Tracked objects:
  3082 ;;		On entry : 0/0
  3083 ;;		On exit  : 0/0
  3084 ;;		Unchanged: 0/0
  3085 ;; Data sizes:     COMRAM   BANK0   BANK1   BANK2   BANK3   BANK4   BANK5   BANK6   BANK7   BANK8   BANK9  BANK10  BANK1
      +1  BANK12  BANK13
  3086 ;;      Params:         0       0       0       0       0       0       0       0       0       0       0       0       
      +0       0       0
  3087 ;;      Locals:         0       0       0       0       0       0       0       0       0       0       0       0       
      +0       0       0
  3088 ;;      Temps:          1       0       0       0       0       0       0       0       0       0       0       0       
      +0       0       0
  3089 ;;      Totals:         1       0       0       0       0       0       0       0       0       0       0       0       
      +0       0       0
  3090 ;;Total ram usage:        1 bytes
  3091 ;; Hardware stack levels used: 1
  3092 ;; This function calls:
  3093 ;;		Nothing
  3094 ;; This function is called by:
  3095 ;;		_I2C_2_Master_RepStart
  3096 ;;		_I2C_2_Master_Read
  3097 ;;		i2_I2C_2_Master_Start
  3098 ;;		i2_I2C_2_Master_Stop
  3099 ;;		i2_I2C_2_Master_Write
  3100 ;; This function uses a non-reentrant model
  3101 ;;
  3102                           
  3103                           	psect	text27
  3104   0015B0                     __ptext27:
  3105                           	callstack 0
  3106   0015B0                     i2_I2C_2_Master_Idle:
  3107                           	callstack 23
  3108   0015B0                     i2l98:
  3109   0015B0  010E               	movlb	14	; () banked
  3110   0015B2  B5D8               	btfsc	216,2,b	;volatile
  3111   0015B4  EFDE  F00A         	goto	i2u32_41
  3112   0015B8  EFE0  F00A         	goto	i2u32_40
  3113   0015BC                     i2u32_41:
  3114   0015BC  EFD8  F00A         	goto	i2l98
  3115   0015C0                     i2u32_40:
  3116   0015C0                     
  3117                           ; BSR set to: 14
  3118   0015C0  CEDA F001          	movff	3802,??i2_I2C_2_Master_Idle	;volatile
  3119   0015C4  0E1F               	movlw	31
  3120   0015C6  1601               	andwf	??i2_I2C_2_Master_Idle^0,f,c
  3121   0015C8  A4D8               	btfss	status,2,c
  3122   0015CA  EFE9  F00A         	goto	i2u33_41
  3123   0015CE  EFEB  F00A         	goto	i2u33_40
  3124   0015D2                     i2u33_41:
  3125   0015D2  EFD8  F00A         	goto	i2l98
  3126   0015D6                     i2u33_40:
  3127   0015D6                     
  3128                           ; BSR set to: 14
  3129   0015D6  0012               	return		;funcret
  3130   0015D8                     __end_ofi2_I2C_2_Master_Idle:
  3131                           	callstack 0
  3132                           
  3133 ;; *************** function _LEDturnOFF *****************
  3134 ;; Defined at:
  3135 ;;		line 32 in file "interact.c"
  3136 ;; Parameters:    Size  Location     Type
  3137 ;;		None
  3138 ;; Auto vars:     Size  Location     Type
  3139 ;;		None
  3140 ;; Return value:  Size  Location     Type
  3141 ;;                  1    wreg      void 
  3142 ;; Registers used:
  3143 ;;		None
  3144 ;; Tracked objects:
  3145 ;;		On entry : 0/0
  3146 ;;		On exit  : 0/0
  3147 ;;		Unchanged: 0/0
  3148 ;; Data sizes:     COMRAM   BANK0   BANK1   BANK2   BANK3   BANK4   BANK5   BANK6   BANK7   BANK8   BANK9  BANK10  BANK1
      +1  BANK12  BANK13
  3149 ;;      Params:         0       0       0       0       0       0       0       0       0       0       0       0       
      +0       0       0
  3150 ;;      Locals:         0       0       0       0       0       0       0       0       0       0       0       0       
      +0       0       0
  3151 ;;      Temps:          0       0       0       0       0       0       0       0       0       0       0       0       
      +0       0       0
  3152 ;;      Totals:         0       0       0       0       0       0       0       0       0       0       0       0       
      +0       0       0
  3153 ;;Total ram usage:        0 bytes
  3154 ;; Hardware stack levels used: 1
  3155 ;; This function calls:
  3156 ;;		Nothing
  3157 ;; This function is called by:
  3158 ;;		_High_ISR
  3159 ;;		_readColors
  3160 ;; This function uses a non-reentrant model
  3161 ;;
  3162                           
  3163                           	psect	text28
  3164   0016BE                     __ptext28:
  3165                           	callstack 0
  3166   0016BE                     _LEDturnOFF:
  3167                           	callstack 25
  3168   0016BE                     
  3169                           ;interact.c: 33:     LATDbits.LATD3 = 0;
  3170   0016BE  967C               	bcf	124,3,c	;volatile
  3171                           
  3172                           ;interact.c: 36:     LATGbits.LATG0 = 0;
  3173   0016C0  907F               	bcf	127,0,c	;volatile
  3174                           
  3175                           ;interact.c: 37:     LATEbits.LATE7 = 0;
  3176   0016C2  9E7D               	bcf	125,7,c	;volatile
  3177                           
  3178                           ;interact.c: 38:     LATAbits.LATA3 = 0;
  3179   0016C4  9679               	bcf	121,3,c	;volatile
  3180   0016C6  0012               	return		;funcret
  3181   0016C8                     __end_of_LEDturnOFF:
  3182                           	callstack 0
  3183                           
  3184                           	psect	smallconst
  3185   000E00                     __psmallconst:
  3186                           	callstack 0
  3187   000E00  00                 	db	0
  3188   000E01  00                 	db	0	; dummy byte at the end
  3189   000000                     
  3190                           	psect	rparam
  3191   000000                     
  3192                           	psect	temp
  3193   00004F                     btemp:
  3194                           	callstack 0
  3195   00004F                     	ds	1
  3196   000000                     int$flags	set	btemp
  3197   000000                     wtemp8	set	btemp+1
  3198   000000                     ttemp5	set	btemp+1
  3199   000000                     ttemp6	set	btemp+4
  3200   000000                     ttemp7	set	btemp+8
  3201                           
  3202                           	psect	config
  3203                           
  3204                           ;Config register CONFIG1L @ 0x300000
  3205                           ;	External Oscillator mode Selection bits
  3206                           ;	FEXTOSC = HS, HS (crystal oscillator) above 8 MHz; PFM set to high power
  3207                           ;	Power-up default value for COSC bits
  3208                           ;	RSTOSC = EXTOSC_4PLL, EXTOSC with 4x PLL, with EXTOSC operating per FEXTOSC bits
  3209   300000                     	org	3145728
  3210   300000  AA                 	db	170
  3211                           
  3212                           ;Config register CONFIG1H @ 0x300001
  3213                           ;	unspecified, using default values
  3214                           ;	Clock Out Enable bit
  3215                           ;	CLKOUTEN = 0x1, unprogrammed default
  3216                           ;	Clock Switch Enable bit
  3217                           ;	CSWEN = 0x1, unprogrammed default
  3218                           ;	Fail-Safe Clock Monitor Enable bit
  3219                           ;	FCMEN = 0x1, unprogrammed default
  3220   300001                     	org	3145729
  3221   300001  FF                 	db	255
  3222                           
  3223                           ;Config register CONFIG3L @ 0x300004
  3224                           ;	WDT Period Select bits
  3225                           ;	WDTCPS = WDTCPS_31, Divider ratio 1:65536; software control of WDTPS
  3226                           ;	WDT operating mode
  3227                           ;	WDTE = OFF, WDT Disabled
  3228   300004                     	org	3145732
  3229   300004  9F                 	db	159
  3230                           
  3231                           ;Config register CONFIG3H @ 0x300005
  3232                           ;	unspecified, using default values
  3233                           ;	WDT Window Select bits
  3234                           ;	WDTCWS = 0x7, unprogrammed default
  3235                           ;	WDT input clock selector
  3236                           ;	WDTCCS = 0x7, unprogrammed default
  3237   300005                     	org	3145733
  3238   300005  FF                 	db	255
  3239                           tosu	equ	0xFFF
  3240                           tosh	equ	0xFFE
  3241                           tosl	equ	0xFFD
  3242                           stkptr	equ	0xFFC
  3243                           pclatu	equ	0xFFB
  3244                           pclath	equ	0xFFA
  3245                           pcl	equ	0xFF9
  3246                           tblptru	equ	0xFF8
  3247                           tblptrh	equ	0xFF7
  3248                           tblptrl	equ	0xFF6
  3249                           tablat	equ	0xFF5
  3250                           prodh	equ	0xFF4
  3251                           prodl	equ	0xFF3
  3252                           indf0	equ	0xFEF
  3253                           postinc0	equ	0xFEE
  3254                           postdec0	equ	0xFED
  3255                           preinc0	equ	0xFEC
  3256                           plusw0	equ	0xFEB
  3257                           fsr0h	equ	0xFEA
  3258                           fsr0l	equ	0xFE9
  3259                           wreg	equ	0xFE8
  3260                           indf1	equ	0xFE7
  3261                           postinc1	equ	0xFE6
  3262                           postdec1	equ	0xFE5
  3263                           preinc1	equ	0xFE4
  3264                           plusw1	equ	0xFE3
  3265                           fsr1h	equ	0xFE2
  3266                           fsr1l	equ	0xFE1
  3267                           bsr	equ	0xFE0
  3268                           indf2	equ	0xFDF
  3269                           postinc2	equ	0xFDE
  3270                           postdec2	equ	0xFDD
  3271                           preinc2	equ	0xFDC
  3272                           plusw2	equ	0xFDB
  3273                           fsr2h	equ	0xFDA
  3274                           fsr2l	equ	0xFD9
  3275                           status	equ	0xFD8

Data Sizes:
    Strings     0
    Constant    0
    Data        0
    BSS         35
    Persistent  0
    Stack       0

Auto Spaces:
    Space          Size  Autos    Used
    COMRAM           94     43      78
    BANK0           160      0       0
    BANK1           256      0       0
    BANK2           256      0       0
    BANK3           256      0       0
    BANK4           256      0       0
    BANK5           256      0       0
    BANK6           256      0       0
    BANK7           256      0       0
    BANK8           256      0       0
    BANK9           256      0       0
    BANK10          256      0       0
    BANK11          256      0       0
    BANK12          256      0       0
    BANK13          234      0       0

Pointer List with Targets:

    decideColor@normRGB	PTR struct normColors size(1) Largest target is 6
		 -> normRGB(COMRAM[6]), 

    normalizeColors@normRGB	PTR struct normColors size(1) Largest target is 6
		 -> normRGB(COMRAM[6]), 

    normalizeColors@RGBC	PTR struct colors size(1) Largest target is 8
		 -> RGBC(COMRAM[8]), 


Critical Paths under _main in COMRAM

    _main->_normalizeColors
    _normalizeColors->___lwdiv
    _interrupts_init->_color_writetoaddr
    _clearInterrupt->_I2C_2_Master_Write
    _color_click_init->_color_writetoaddr
    _color_writetoaddr->_I2C_2_Master_Write
    _I2C_2_Master_Write->_I2C_2_Master_Idle
    _I2C_2_Master_Stop->_I2C_2_Master_Idle
    _I2C_2_Master_Start->_I2C_2_Master_Idle

Critical Paths under _High_ISR in COMRAM

    _High_ISR->_readBlueColor
    _High_ISR->_readClearColor
    _High_ISR->_readGreenColor
    _High_ISR->_readRedColor
    i2_clearInterrupt->i2_I2C_2_Master_Write
    _readRedColor->_I2C_2_Master_Read
    _readGreenColor->_I2C_2_Master_Read
    _readClearColor->_I2C_2_Master_Read
    _readBlueColor->_I2C_2_Master_Read
    i2_I2C_2_Master_Write->i2_I2C_2_Master_Idle
    i2_I2C_2_Master_Stop->i2_I2C_2_Master_Idle
    i2_I2C_2_Master_Start->i2_I2C_2_Master_Idle
    _I2C_2_Master_RepStart->i2_I2C_2_Master_Idle
    _I2C_2_Master_Read->i2_I2C_2_Master_Idle

Critical Paths under _main in BANK0

    None.

Critical Paths under _High_ISR in BANK0

    None.

Critical Paths under _main in BANK1

    None.

Critical Paths under _High_ISR in BANK1

    None.

Critical Paths under _main in BANK2

    None.

Critical Paths under _High_ISR in BANK2

    None.

Critical Paths under _main in BANK3

    None.

Critical Paths under _High_ISR in BANK3

    None.

Critical Paths under _main in BANK4

    None.

Critical Paths under _High_ISR in BANK4

    None.

Critical Paths under _main in BANK5

    None.

Critical Paths under _High_ISR in BANK5

    None.

Critical Paths under _main in BANK6

    None.

Critical Paths under _High_ISR in BANK6

    None.

Critical Paths under _main in BANK7

    None.

Critical Paths under _High_ISR in BANK7

    None.

Critical Paths under _main in BANK8

    None.

Critical Paths under _High_ISR in BANK8

    None.

Critical Paths under _main in BANK9

    None.

Critical Paths under _High_ISR in BANK9

    None.

Critical Paths under _main in BANK10

    None.

Critical Paths under _High_ISR in BANK10

    None.

Critical Paths under _main in BANK11

    None.

Critical Paths under _High_ISR in BANK11

    None.

Critical Paths under _main in BANK12

    None.

Critical Paths under _High_ISR in BANK12

    None.

Critical Paths under _main in BANK13

    None.

Critical Paths under _High_ISR in BANK13

    None.

Call Graph Tables:

 ---------------------------------------------------------------------------------
 (Depth) Function   	        Calls       Base Space   Used Autos Params    Refs
 ---------------------------------------------------------------------------------
 (0) _main                                                 9     9      0    3448
                                             34 COMRAM     9     9      0
                          _LEDturnON
                        _Timer0_init
                   _color_click_init
                        _decideColor
                   _init_buttons_LED
                    _interrupts_init
                    _normalizeColors
 ---------------------------------------------------------------------------------
 (1) _normalizeColors                                     14    12      2    1398
                                             20 COMRAM    14    12      2
                            ___lwdiv
 ---------------------------------------------------------------------------------
 (2) ___lwdiv                                              7     3      4     912
                                             13 COMRAM     7     3      4
 ---------------------------------------------------------------------------------
 (1) _interrupts_init                                      0     0      0     758
                     _clearInterrupt
                  _color_writetoaddr
 ---------------------------------------------------------------------------------
 (2) _clearInterrupt                                       0     0      0      15
                 _I2C_2_Master_Start
                  _I2C_2_Master_Stop
                 _I2C_2_Master_Write
 ---------------------------------------------------------------------------------
 (1) _init_buttons_LED                                     0     0      0       0
 ---------------------------------------------------------------------------------
 (1) _decideColor                                          4     2      2     208
                                             13 COMRAM     4     2      2
 ---------------------------------------------------------------------------------
 (1) _color_click_init                                     1     1      0     743
                                             17 COMRAM     1     1      0
                  _I2C_2_Master_Init
                  _color_writetoaddr
 ---------------------------------------------------------------------------------
 (2) _color_writetoaddr                                    2     1      1     743
                                             15 COMRAM     2     1      1
                 _I2C_2_Master_Start
                  _I2C_2_Master_Stop
                 _I2C_2_Master_Write
 ---------------------------------------------------------------------------------
 (3) _I2C_2_Master_Write                                   1     1      0      15
                                             14 COMRAM     1     1      0
                  _I2C_2_Master_Idle
 ---------------------------------------------------------------------------------
 (3) _I2C_2_Master_Stop                                    0     0      0       0
                  _I2C_2_Master_Idle
 ---------------------------------------------------------------------------------
 (3) _I2C_2_Master_Start                                   0     0      0       0
                  _I2C_2_Master_Idle
 ---------------------------------------------------------------------------------
 (4) _I2C_2_Master_Idle                                    1     1      0       0
                                             13 COMRAM     1     1      0
 ---------------------------------------------------------------------------------
 (2) _I2C_2_Master_Init                                    0     0      0       0
 ---------------------------------------------------------------------------------
 (1) _Timer0_init                                          0     0      0       0
 ---------------------------------------------------------------------------------
 (1) _LEDturnON                                            0     0      0       0
 ---------------------------------------------------------------------------------
 Estimated maximum stack depth 4
 ---------------------------------------------------------------------------------
 (Depth) Function   	        Calls       Base Space   Used Autos Params    Refs
 ---------------------------------------------------------------------------------
 (5) _High_ISR                                             2     2      0     474
                                             11 COMRAM     2     2      0
                         _LEDturnOFF
                      _readBlueColor
                     _readClearColor
                     _readGreenColor
                       _readRedColor
                   i2_clearInterrupt
 ---------------------------------------------------------------------------------
 (6) i2_clearInterrupt                                     0     0      0      22
               i2_I2C_2_Master_Start
                i2_I2C_2_Master_Stop
               i2_I2C_2_Master_Write
 ---------------------------------------------------------------------------------
 (6) _readRedColor                                         7     5      2     113
                                              4 COMRAM     7     5      2
                  _I2C_2_Master_Read
              _I2C_2_Master_RepStart
               i2_I2C_2_Master_Start
                i2_I2C_2_Master_Stop
               i2_I2C_2_Master_Write
 ---------------------------------------------------------------------------------
 (6) _readGreenColor                                       7     5      2     113
                                              4 COMRAM     7     5      2
                  _I2C_2_Master_Read
              _I2C_2_Master_RepStart
               i2_I2C_2_Master_Start
                i2_I2C_2_Master_Stop
               i2_I2C_2_Master_Write
 ---------------------------------------------------------------------------------
 (6) _readClearColor                                       7     5      2     113
                                              4 COMRAM     7     5      2
                  _I2C_2_Master_Read
              _I2C_2_Master_RepStart
               i2_I2C_2_Master_Start
                i2_I2C_2_Master_Stop
               i2_I2C_2_Master_Write
 ---------------------------------------------------------------------------------
 (6) _readBlueColor                                        7     5      2     113
                                              4 COMRAM     7     5      2
                  _I2C_2_Master_Read
              _I2C_2_Master_RepStart
               i2_I2C_2_Master_Start
                i2_I2C_2_Master_Stop
               i2_I2C_2_Master_Write
 ---------------------------------------------------------------------------------
 (7) i2_I2C_2_Master_Write                                 1     1      0      22
                                              1 COMRAM     1     1      0
                i2_I2C_2_Master_Idle
 ---------------------------------------------------------------------------------
 (7) i2_I2C_2_Master_Stop                                  0     0      0       0
                i2_I2C_2_Master_Idle
 ---------------------------------------------------------------------------------
 (7) i2_I2C_2_Master_Start                                 0     0      0       0
                i2_I2C_2_Master_Idle
 ---------------------------------------------------------------------------------
 (7) _I2C_2_Master_RepStart                                0     0      0       0
                i2_I2C_2_Master_Idle
 ---------------------------------------------------------------------------------
 (7) _I2C_2_Master_Read                                    3     3      0      45
                                              1 COMRAM     3     3      0
                i2_I2C_2_Master_Idle
 ---------------------------------------------------------------------------------
 (8) i2_I2C_2_Master_Idle                                  1     1      0       0
                                              0 COMRAM     1     1      0
 ---------------------------------------------------------------------------------
 (6) _LEDturnOFF                                           0     0      0       0
 ---------------------------------------------------------------------------------
 Estimated maximum stack depth 8
 ---------------------------------------------------------------------------------

 Call Graph Graphs:

 _main (ROOT)
   _LEDturnON
   _Timer0_init
   _color_click_init
     _I2C_2_Master_Init
     _color_writetoaddr
       _I2C_2_Master_Start
         _I2C_2_Master_Idle
       _I2C_2_Master_Stop
         _I2C_2_Master_Idle
       _I2C_2_Master_Write
         _I2C_2_Master_Idle
   _decideColor
   _init_buttons_LED
   _interrupts_init
     _clearInterrupt
       _I2C_2_Master_Start
       _I2C_2_Master_Stop
       _I2C_2_Master_Write
     _color_writetoaddr
   _normalizeColors
     ___lwdiv

 _High_ISR (ROOT)
   _LEDturnOFF
   _readBlueColor
     _I2C_2_Master_Read
       i2_I2C_2_Master_Idle
     _I2C_2_Master_RepStart
       i2_I2C_2_Master_Idle
     i2_I2C_2_Master_Start
       i2_I2C_2_Master_Idle
     i2_I2C_2_Master_Stop
       i2_I2C_2_Master_Idle
     i2_I2C_2_Master_Write
       i2_I2C_2_Master_Idle
   _readClearColor
     _I2C_2_Master_Read
     _I2C_2_Master_RepStart
     i2_I2C_2_Master_Start
     i2_I2C_2_Master_Stop
     i2_I2C_2_Master_Write
   _readGreenColor
     _I2C_2_Master_Read
     _I2C_2_Master_RepStart
     i2_I2C_2_Master_Start
     i2_I2C_2_Master_Stop
     i2_I2C_2_Master_Write
   _readRedColor
     _I2C_2_Master_Read
     _I2C_2_Master_RepStart
     i2_I2C_2_Master_Start
     i2_I2C_2_Master_Stop
     i2_I2C_2_Master_Write
   i2_clearInterrupt
     i2_I2C_2_Master_Start
     i2_I2C_2_Master_Stop
     i2_I2C_2_Master_Write

 Address spaces:
Name               Size   Autos  Total    Cost      Usage
BIGRAM             DE9      0       0      51        0.0%
EEDATA             400      0       0       0        0.0%
BITBANK12          100      0       0      28        0.0%
BANK12             100      0       0      29        0.0%
BITBANK11          100      0       0      26        0.0%
BANK11             100      0       0      27        0.0%
BITBANK10          100      0       0      24        0.0%
BANK10             100      0       0      25        0.0%
BITBANK9           100      0       0      22        0.0%
BANK9              100      0       0      23        0.0%
BITBANK8           100      0       0      20        0.0%
BANK8              100      0       0      21        0.0%
BITBANK7           100      0       0      18        0.0%
BANK7              100      0       0      19        0.0%
BITBANK6           100      0       0      16        0.0%
BANK6              100      0       0      17        0.0%
BITBANK5           100      0       0      14        0.0%
BANK5              100      0       0      15        0.0%
BITBANK4           100      0       0      12        0.0%
BANK4              100      0       0      13        0.0%
BITBANK3           100      0       0      10        0.0%
BANK3              100      0       0      11        0.0%
BITBANK2           100      0       0       8        0.0%
BANK2              100      0       0       9        0.0%
BITBANK1           100      0       0       6        0.0%
BANK1              100      0       0       7        0.0%
BITBANK13           EA      0       0      30        0.0%
BANK13              EA      0       0      31        0.0%
BITBANK0            A0      0       0       4        0.0%
BANK0               A0      0       0       5        0.0%
BITBIGSFRhlll       9E      0       0      39        0.0%
BITCOMRAM           5E      0       0       0        0.0%
COMRAM              5E     2B      4E       1       83.0%
BITBIGSFRhhhhll     4A      0       0      34        0.0%
BITBIGSFRlllhlh     3B      0       0      44        0.0%
BITBIGSFRllh        2D      0       0      41        0.0%
BITBIGSFRllllh      2B      0       0      48        0.0%
BITBIGSFRlllhhl     29      0       0      43        0.0%
BITBIGSFRhhhhlh     1B      0       0      33        0.0%
BITBIGSFRhhhhh       D      0       0      32        0.0%
BITBIGSFRlllhhh      C      0       0      42        0.0%
BITBIGSFRlllhll      9      0       0      46        0.0%
BITBIGSFRlllhlh      9      0       0      45        0.0%
BITBIGSFRhllh        2      0       0      38        0.0%
BITBIGSFRhhl         2      0       0      36        0.0%
BITBIGSFRlllhll      1      0       0      47        0.0%
BITBIGSFRhhhl        1      0       0      35        0.0%
BITBIGSFRlh          1      0       0      40        0.0%
BITBIGSFRhlh         1      0       0      37        0.0%
BITBIGSFRlllll       1      0       0      49        0.0%
BIGSFR               0      0       0     200        0.0%
BITSFR_3             0      0       0     200        0.0%
SFR_3                0      0       0     200        0.0%
BITSFR_2             0      0       0     200        0.0%
SFR_2                0      0       0     200        0.0%
BITSFR_1             0      0       0     200        0.0%
SFR_1                0      0       0     200        0.0%
BITSFR               0      0       0     200        0.0%
SFR                  0      0       0     200        0.0%
STACK                0      0       0       2        0.0%
NULL                 0      0       0       0        0.0%
ABS                  0      0      4E      50        0.0%
DATA                 0      0      4E       3        0.0%
CODE                 0      0       0       0        0.0%


Microchip Technology PIC18 Macro Assembler V2.45 build 20230818022343 
Symbol Table                                                                                   Tue Mar 05 15:52:15 2024

           ??_init_buttons_LED 000E                              _w 0032                              _x 0030  
                            _y 002E                              _z 002C                             l31 155C  
                           l40 15F6                             l62 12D8                             l55 11CA  
                           l95 1586                             l98 1588                             u10 1598  
                           u11 1594                             u20 15AE                             u21 15AA  
                          l101 15AE                            l110 168A                            l104 1694  
                          l113 1674                            l211 1668                            l214 169E  
                          l180 0F36                            l174 0E7A                            l183 0F94  
                          l184 0FD6                            l177 0ED8                            l290 163E  
                          l186 1020                            l187 1062                            l276 139C  
                          l279 1612                            l971 1588                            l796 134C  
                          l973 1598                            l981 1670                            l789 1344  
                          l991 155E                            l975 168C                            l983 1682  
                          l993 1568                            l977 1690                            l985 1686  
                          l995 156E                            l979 166C                            l997 1570  
                          l999 1572                            u400 121C                            u401 1218  
                          u410 123E                            u411 123A                            u420 1274  
                          u500 0F30                            u421 1270                            u501 0F2C  
                          u430 1296                            u510 0F7A                            u431 1292  
                          u511 0F76                            u440 12B8                            u360 12F4  
                          u520 0F8E                            u441 12B4                            u361 12F0  
                          u521 0F8A                            u370 1312                            u530 0FD6  
                          u450 0E44                            u371 130E                            u531 0FD2  
                          u451 0E40                            u380 132E                            u540 101A  
                          u460 0E74                            u381 132A                            u541 1016  
                          u461 0E70                            u390 11EE                            u550 1062  
                          u470 0EBE                            u391 11EA                            u551 105E  
                          u471 0EBA                            u607 0E86                            u480 0ED2  
                          u481 0ECE                            u617 0E9E                            u490 0F1C  
                          u707 102C                            u491 0F18                            u627 0EE4  
                          u717 1044                            u637 0EFC                            u727 106E  
                          u647 0F42                            u737 1086                            u657 0F5A  
                          u747 1534                            u667 0FA0                            u677 0FB8  
                          u597 0E24                            u687 0FE2                            u697 0FFA  
                          _red 003E                            wreg 0FE8                           l1001 1574  
                         l1023 162A                           l1109 1696                           l1155 1656  
                         l1191 1610                           l1511 110A                           l1185 15F8  
                         l1417 15DA                           l1521 11CC                           l1441 12F4  
                         l1513 1132                           l1187 1600                           l1531 123E  
                         l1523 11EE                           l1451 132E                           l1443 12FC  
                         l1515 114E                           l1507 10A4                           l1189 1606  
                         l1541 1256                           l1453 1336                           l1445 1304  
                         l1437 12DA                           l1517 117E                           l1509 10EE  
                         l1701 0F38                           l1471 1520                           l1551 12C4  
                         l1543 1274                           l1535 124A                           l1527 11FA  
                         l1455 1338                           l1447 1312                           l1439 12E2  
                         l1519 119A                           l1711 0F90                           l1703 0F4E  
                         l1481 1552                           l1473 1524                           l1545 1296  
                         l1529 121C                           l1457 133E                           l1449 1318  
                         l1721 0FC4                           l1705 0F68                           l1641 0E0C  
                         l1475 152E                           l1547 12B8                           l1555 12D0  
                         l1571 135C                           l1563 134E                           l1731 101C  
                         l1723 0FD8                           l1707 0F7A                           l1651 0E32  
                         l1643 0E0E                           l1635 0E02                           l1477 153E  
                         l1581 1386                           l1573 135E                           l1565 1354  
                         l1741 1050                           l1725 0FEE                           l1717 0F96  
                         l1709 0F8E                           l1661 0E74                           l1653 0E34  
                         l1645 0E12                           l1637 0E06                           l1479 1548  
                         l1583 1390                           l1575 1368                           l1567 1358  
                         l1751 109A                           l1743 1064                           l1719 0FAC  
                         l1727 1006                           l1671 0EAC                           l1663 0E76  
                         l1655 0E44                           l1647 0E16                           l1639 0E0A  
                         l1585 1394                           l1577 1372                           l1569 135A  
                         l1745 107A                           l1737 1022                           l1729 101A  
                         l1673 0EAE                           l1657 0E46                           l1649 0E1A  
                         l1587 1396                           l1579 137C                           l1739 1038  
                         l1747 1092                           l1691 0F1C                           l1667 0E7C  
                         l1675 0EBE                           l1659 0E62                           l1589 139A  
                         l1749 1096                           l1693 0F30                           l1685 0EDA  
                         l1677 0ED2                           l1669 0E92                           l1695 0F32  
                         l1687 0EF0                           l1679 0ED4                           l1689 0F0A  
                         _RGBC 0041                           i2l43 13EC                           i2l52 148C  
                         i2l46 143C                           i2l49 14DC                           i2l98 15B0  
      __end_of_interrupts_init 139E                           _blue 003A                           _main 0E02  
                         fsr2h 0FDA                           fsr2l 0FD9                           btemp 004F  
                         start 0136                    ?_LEDturnOFF 0001                   ___param_bank 0000  
           normalizeColors@sum 001F                          ?_main 0001                __end_of___lwdiv 134E  
                        i2l101 15D6                          i2l110 16A8                          i2l104 16B2  
                        i2l113 1680                          i2l107 16BC                          i2l116 151E  
                        i2l217 16C6                readRedColor@tmp 000A                          i2l290 1654  
                        i2l287 0132               i2_clearInterrupt 1640                          _TMR0H 0FD4  
                        _TMR0L 0FD3     __end_of_I2C_2_Master_Start 1696     __end_of_I2C_2_Master_Write 1676  
                        _clear 0038                          _green 003C                          main@i 0025  
                        plusw2 0FDB                          ttemp5 0050                          ttemp6 0053  
                        ttemp7 0057                          status 0FD8                          wtemp8 0050  
        _I2C_2_Master_RepStart 16B4               __end_of_High_ISR 0136                __initialization 1614  
                 __end_of_main 10A4            normalizeColors@RGBC 0015                _normalizeColors 10A4  
                       ??_main 0023                  __activetblptr 0000                  ?_readRedColor 0005  
                       _RD5PPS 0E6F                         i2l1111 16BE                         _RD6PPS 0E70  
                       i2l1413 15B0                         i2l1421 16B8                         i2l1501 143E  
                       i2l1415 15C0                         i2l1431 151A                         i2l1423 14E0  
                       i2l1503 1484                         i2l1433 151C                         i2l1425 14E4  
                       i2l1427 14EC                         i2l1419 16B4                         i2l1429 14F4  
                       i2l1461 16AE                         i2l1463 16A0                         i2l1465 16A4  
                       i2l1801 012C                         i2l1459 16AA                         i2l1467 1678  
                       i2l1491 1434                         i2l1483 139E                         i2l1803 012E  
                       i2l1469 167C                         i2l1485 13E4                         i2l1495 148E  
                       i2l1591 1640                         i2l1497 14D4                         i2l1489 13EE  
                       i2l1761 003A                         i2l1753 000A                         i2l1771 007A  
                       i2l1763 003C                         i2l1755 001A                         i2l1781 00BA  
                       i2l1773 007C                         i2l1765 0054                         i2l1757 002A  
                       i2l1791 00FA                         i2l1783 00BC                         i2l1775 0094  
                       i2l1767 0060                         i2l1759 0036                         i2l1793 0112  
                       i2l1785 00D4                         i2l1777 00A0                         i2l1769 0078  
                       i2l1787 00E0                         i2l1779 00B8                         i2l1795 0116  
                       i2l1797 011A                         i2l1789 00F8                         i2l1799 011E  
             ?_interrupts_init 0001              __end_of_LEDturnON 16A0       __end_of_color_click_init 155E  
            readGreenColor@tmp 000A                  ??_Timer0_init 000E                      ??___lwdiv 0012  
            readClearColor@tmp 000A                         clear_0 161A                         isa$std 0001  
               ??_readRedColor 0007                  _readBlueColor 148E                   __mediumconst 0000  
       normalizeColors@normRGB 0016                     __accesstop 0060        __end_of__initialization 1620  
               _clearInterrupt 162A         ?_I2C_2_Master_RepStart 0001                  ___rparam_used 0001  
               __pcstackCOMRAM 0001        __end_of_normalizeColors 11CC            __end_of_Timer0_init 1614  
               ?_readBlueColor 0005                      ?_High_ISR 0001         __end_of_clearInterrupt 1640  
     __end_ofi2_clearInterrupt 1656                   ??_LEDturnOFF 0001              _color_writetoaddr 15D8  
           ?_color_writetoaddr 0010                 main@colourCode 002A            ??_color_writetoaddr 0011  
                      _INT0PPS 0DF0                        i2u32_40 15C0                        i2u32_41 15BC  
                      i2u33_40 15D6                        i2u33_41 15D2                        i2u34_40 1508  
                      i2u34_41 1500                        i2u35_48 150A             __end_of_LEDturnOFF 16C8  
                      i2u56_40 001A                        i2u56_41 0016                        i2u80_47 00EA  
                      i2u57_40 002A                        i2u57_41 0026                        i2u81_47 0104  
                      i2u58_40 012C                        i2u58_41 0128                        i2u75_47 0046  
                      i2u76_47 006A                        i2u77_47 0086                        i2u78_47 00AA  
                      i2u79_47 00C6                        _SSP2ADD 0ED6                     ??_High_ISR 000C  
                      _SSP2BUF 0ED5                     _colourCode 0034                ?_clearInterrupt 0001  
       color_writetoaddr@value 0010      __end_of_color_writetoaddr 15F8           __end_of_readRedColor 13EE  
           _I2C_2_Master_Start 168C            i2_I2C_2_Master_Idle 15B0             _I2C_2_Master_Write 166A  
                      __Hparam 0000            i2_I2C_2_Master_Stop 16A0                        __Lparam 0000  
                  _Timer0_init 15F8               ?_normalizeColors 0015                  ??_decideColor 0010  
          ?_I2C_2_Master_Start 0001                        ___lwdiv 12DA            ?_I2C_2_Master_Write 0001  
                 __psmallconst 0E00                ??_readBlueColor 0007                        __pcinit 1614  
                      __ramtop 0E00                        __ptext0 0E02                        __ptext1 10A4  
                      __ptext2 12DA                        __ptext3 134E                        __ptext4 162A  
                      __ptext5 1656                        __ptext6 11CC                        __ptext7 1520  
                      __ptext8 15D8                        __ptext9 166A           ?i2_I2C_2_Master_Idle 0001  
         ?i2_I2C_2_Master_Stop 0001                 _readClearColor 143E                        _normRGB 0049  
         ??_I2C_2_Master_Start 000F           ??_I2C_2_Master_Write 000F           end_of_initialization 1620  
            ?_color_click_init 0001             ??_color_click_init 0012                      _LEDturnON 1696  
                      postdec2 0FDD                        postinc0 0FEE                        postinc2 0FDE  
       __end_of_readClearColor 148E          ??i2_I2C_2_Master_Idle 0001                 _readGreenColor 13EE  
        ??i2_I2C_2_Master_Stop 0002               _init_buttons_LED 1656            __end_of_decideColor 12DA  
                    _TRISAbits 0F81                      _TRISDbits 0F84                      _TRISEbits 0F85  
                    _TRISGbits 0F87                      _TRISHbits 0F88       color_writetoaddr@address 0011  
      ??_I2C_2_Master_RepStart 0002                     ?_LEDturnON 0001         __end_of_readGreenColor 143E  
              ?_readClearColor 0005            start_initialization 1614              ?i2_clearInterrupt 0001  
           ??i2_clearInterrupt 0003                    _decideColor 11CC  i2I2C_2_Master_Write@data_byte 0002  
              ?_readGreenColor 0005   __end_ofi2_I2C_2_Master_Start 16B4   __end_ofi2_I2C_2_Master_Write 1682  
                 _readRedColor 139E                    __pbssCOMRAM 002C               ??_clearInterrupt 0010  
                  ??_LEDturnON 000E               ___lwdiv@dividend 000E                   ?_Timer0_init 0001  
                    __pintcode 0008                       ?___lwdiv 000E           I2C_2_Master_Read@ack 0003  
            ??_interrupts_init 0012           I2C_2_Master_Read@tmp 0004                    __smallconst 0E00  
            _I2C_2_Master_Idle 1588              _I2C_2_Master_Init 155E              _I2C_2_Master_Read 14DE  
            _I2C_2_Master_Stop 1682                      _increment 0036             ?_I2C_2_Master_Idle 0001  
           ?_I2C_2_Master_Init 0001             ?_I2C_2_Master_Read 0001             ?_I2C_2_Master_Stop 0001  
             ___lwdiv@quotient 0012            ??_I2C_2_Master_Idle 000E            ??_I2C_2_Master_Init 000E  
          ??_I2C_2_Master_Read 0002                       _LATAbits 0F79            ??_I2C_2_Master_Stop 000F  
                     _LATDbits 0F7C                       _LATEbits 0F7D                       _LATGbits 0F7F  
                     _LATHbits 0F80                       _IPR0bits 0E1F                       _PIE0bits 0E29  
     __end_of_init_buttons_LED 166A                       _PIR0bits 0E33               readBlueColor@tmp 000A  
                     _SSP2CON2 0EDA                       _SSP2STAT 0ED8      __end_of_I2C_2_Master_Idle 15B0  
        __end_of_readBlueColor 14DE      __end_of_I2C_2_Master_Init 1588                      main@i_705 0026  
    __end_of_I2C_2_Master_Read 1520                      main@i_706 0027                      main@i_707 0028  
                    main@i_708 0029      __end_of_I2C_2_Master_Stop 168C    I2C_2_Master_Write@data_byte 000F  
                     _High_ISR 0008                  _wall_detected 0040  __end_of_I2C_2_Master_RepStart 16BE  
         i2_I2C_2_Master_Start 16AA           i2_I2C_2_Master_Write 1676                       __Hrparam 0000  
                     __Lrparam 0000    __end_ofi2_I2C_2_Master_Idle 15D8               ??_readClearColor 0007  
  __end_ofi2_I2C_2_Master_Stop 16AA                     _ANSELBbits 0E9A                     _ANSELDbits 0EA7  
                   _T0CON0bits 0FD5                     _T0CON1bits 0FD6                ___lwdiv@divisor 0010  
              ___lwdiv@counter 0014                       __ptext10 1682                       __ptext11 168C  
                     __ptext20 143E                       __ptext12 1588                       __ptext21 148E  
                     __ptext13 155E                       __ptext22 1676                       __ptext14 15F8  
                     __ptext23 16A0                       __ptext15 1696                       __ptext24 16AA  
                     __ptext25 16B4                       __ptext17 1640                       __ptext26 14DE  
                     __ptext18 139E                       __ptext27 15B0                       __ptext19 13EE  
                     __ptext28 16BE                   _SSP2CON1bits 0ED9                   _SSP2CON2bits 0EDA  
         _normalizeColors$1890 0021          ?i2_I2C_2_Master_Start 0001          ?i2_I2C_2_Master_Write 0001  
                     isa$xinst 0000               ??_readGreenColor 0007                       int$flags 004F  
                 ?_decideColor 000E                     _INTCONbits 0FF2              ??_normalizeColors 0017  
                     intlevel2 0000                     _LEDturnOFF 16BE                _interrupts_init 134E  
             _color_click_init 1520                     _SSP2DATPPS 0E1D                     _SSP2CLKPPS 0E1C  
       ??i2_I2C_2_Master_Start 0002         ??i2_I2C_2_Master_Write 0002             decideColor@normRGB 000E  
            ?_init_buttons_LED 0001  
