

Microchip MPLAB XC8 Assembler V2.45 build 20230818022343 
                                                                                               Sat Feb 24 12:52:13 2024

Microchip MPLAB XC8 C Compiler v2.45 (Free license) build 20230818022343 Og1 
     1                           	processor	18F67K40
     2                           	fnconf	rparam,??,?,0
     3                           	pagewidth 120
     4                           	opt	flic
     5                           	psect	cinit,global,reloc=2,class=CODE,delta=1
     6                           	psect	cstackCOMRAM,global,class=COMRAM,space=1,delta=1,lowdata,noexec
     7                           	psect	text0,global,reloc=2,class=CODE,delta=1
     8                           	psect	text1,global,reloc=2,class=CODE,delta=1
     9                           	psect	text2,global,reloc=2,class=CODE,delta=1
    10                           	psect	text3,global,reloc=2,class=CODE,delta=1
    11                           	psect	text4,global,reloc=2,class=CODE,delta=1
    12                           	psect	text5,global,reloc=2,class=CODE,delta=1
    13                           	psect	text6,global,reloc=2,class=CODE,delta=1
    14                           	psect	text7,global,reloc=2,class=CODE,delta=1
    15                           	psect	text8,global,reloc=2,class=CODE,delta=1
    16                           	psect	text9,global,reloc=2,class=CODE,delta=1
    17                           	psect	text10,global,reloc=2,class=CODE,delta=1
    18                           	psect	text11,global,reloc=2,class=CODE,delta=1
    19                           	psect	text12,global,reloc=2,class=CODE,delta=1
    20                           	psect	text13,global,reloc=2,class=CODE,delta=1
    21                           	psect	text14,global,reloc=2,class=CODE,delta=1
    22                           	psect	text15,global,reloc=2,class=CODE,delta=1
    23                           	psect	text16,global,reloc=2,class=CODE,delta=1
    24                           	psect	intcode,global,reloc=2,class=CODE,delta=1
    25                           	psect	smallconst,global,reloc=2,class=SMALLCONST,delta=1,noexec
    26                           	psect	intsave_regs,global,class=BIGRAM,space=1,delta=1,noexec
    27                           	psect	rparam,global,class=COMRAM,space=1,delta=1,noexec
    28                           	psect	temp,global,ovrld,common,class=COMRAM,space=1,delta=1
    29                           	psect	config,global,abs,ovrld,class=CONFIG,space=4,delta=1,noexec
    30   000000                     
    31                           ; Generated 21/07/2023 GMT
    32                           ; 
    33                           ; Copyright © 2023, Microchip Technology Inc. and its subsidiaries ("Microchip")
    34                           ; All rights reserved.
    35                           ; 
    36                           ; This software is developed by Microchip Technology Inc. and its subsidiaries ("Microch
      +                          ip").
    37                           ; 
    38                           ; Redistribution and use in source and binary forms, with or without modification, are
    39                           ; permitted provided that the following conditions are met:
    40                           ; 
    41                           ;     1. Redistributions of source code must retain the above copyright notice, this lis
      +                          t of
    42                           ;        conditions and the following disclaimer.
    43                           ; 
    44                           ;     2. Redistributions in binary form must reproduce the above copyright notice, this 
      +                          list
    45                           ;        of conditions and the following disclaimer in the documentation and/or other
    46                           ;        materials provided with the distribution. Publication is not required when
    47                           ;        this file is used in an embedded application.
    48                           ; 
    49                           ;     3. Microchip's name may not be used to endorse or promote products derived from th
      +                          is
    50                           ;        software without specific prior written permission.
    51                           ; 
    52                           ; THIS SOFTWARE IS PROVIDED BY MICROCHIP "AS IS" AND ANY EXPRESS OR IMPLIED WARRANTIES,
    53                           ; INCLUDING, BUT NOT LIMITED TO, THE IMPLIED WARRANTIES OF MERCHANTABILITY AND FITNESS F
      +                          OR
    54                           ; PURPOSE ARE DISCLAIMED.  IN NO EVENT SHALL MICROCHIP BE LIABLE FOR ANY DIRECT, INDIREC
      +                          T,
    55                           ; INCIDENTAL, SPECIAL, EXEMPLARY, OR CONSEQUENTIAL DAMAGES (INCLUDING BUT NOT LIMITED TO
    56                           ; PROCUREMENT OF SUBSTITUTE GOODS OR SERVICES; LOSS OF USE, DATA OR PROFITS; OR BUSINESS
    57                           ; INTERRUPTION) HOWSOEVER CAUSED AND ON ANY THEORY OF LIABILITY, WHETHER IN CONTRACT, ST
      +                          RICT
    58                           ; LIABILITY, OR TORT (INCLUDING NEGLIGENCE OR OTHERWISE) ARISING IN ANY WAY OUT OF THE U
      +                          SE OF
    59                           ; THIS SOFTWARE, EVEN IF ADVISED OF THE POSSIBILITY OF SUCH DAMAGE.
    60                           ; 
    61                           ; 
    62                           ; Code-generator required, PIC18F67K40 Definitions
    63                           ; 
    64                           ; SFR Addresses
    65   000000                     _SSP2CON2bits	set	3802
    66   000000                     _SSP2CLKPPS	set	3612
    67   000000                     _SSP2DATPPS	set	3613
    68   000000                     _ANSELDbits	set	3751
    69   000000                     _SSP2ADD	set	3798
    70   000000                     _SSP2CON1bits	set	3801
    71   000000                     _LATAbits	set	3961
    72   000000                     _LATDbits	set	3964
    73   000000                     _SSP2CON2	set	3802
    74   000000                     _TRISDbits	set	3972
    75   000000                     _SSP2STAT	set	3800
    76   000000                     _TRISEbits	set	3973
    77   000000                     _TRISGbits	set	3975
    78   000000                     _SSP2BUF	set	3797
    79   000000                     _RD5PPS	set	3695
    80   000000                     _RD6PPS	set	3696
    81   000000                     _LATEbits	set	3965
    82   000000                     _LATGbits	set	3967
    83   000000                     _TRISAbits	set	3969
    84   000000                     _INTCONbits	set	4082
    85                           
    86                           ; #config settings
    87                           
    88                           	psect	cinit
    89   001188                     __pcinit:
    90                           	callstack 0
    91   001188                     start_initialization:
    92                           	callstack 0
    93   001188                     __initialization:
    94                           	callstack 0
    95   001188                     end_of_initialization:
    96                           	callstack 0
    97   001188                     __end_of__initialization:
    98                           	callstack 0
    99   001188  9016               	bcf	int$flags,0,c	;clear compiler interrupt flag (level 1)
   100   00118A  9216               	bcf	int$flags,1,c	;clear compiler interrupt flag (level 2)
   101   00118C  0100               	movlb	0
   102   00118E  EF01  F007         	goto	_main	;jump to C main() function
   103                           
   104                           	psect	cstackCOMRAM
   105   000001                     __pcstackCOMRAM:
   106                           	callstack 0
   107   000001                     ??_I2C_2_Master_Idle:
   108   000001                     
   109                           ; 1 bytes @ 0x0
   110   000001                     	ds	1
   111   000002                     ??_I2C_2_Master_Read:
   112   000002                     I2C_2_Master_Write@data_byte:
   113                           	callstack 0
   114                           
   115                           ; 1 bytes @ 0x1
   116   000002                     	ds	1
   117   000003                     color_writetoaddr@value:
   118                           	callstack 0
   119   000003                     I2C_2_Master_Read@ack:
   120                           	callstack 0
   121                           
   122                           ; 1 bytes @ 0x2
   123   000003                     	ds	1
   124   000004                     color_writetoaddr@address:
   125                           	callstack 0
   126   000004                     I2C_2_Master_Read@tmp:
   127                           	callstack 0
   128                           
   129                           ; 1 bytes @ 0x3
   130   000004                     	ds	1
   131   000005                     ??_color_click_init:
   132   000005                     ?_readRedColor:
   133                           	callstack 0
   134   000005                     ?_readGreenColor:
   135                           	callstack 0
   136   000005                     ?_readBlueColor:
   137                           	callstack 0
   138   000005                     ?_readClearColor:
   139                           	callstack 0
   140                           
   141                           ; 2 bytes @ 0x4
   142   000005                     	ds	2
   143   000007                     ??_readRedColor:
   144   000007                     ??_readGreenColor:
   145   000007                     ??_readBlueColor:
   146   000007                     ??_readClearColor:
   147                           
   148                           ; 1 bytes @ 0x6
   149   000007                     	ds	3
   150   00000A                     readRedColor@tmp:
   151                           	callstack 0
   152   00000A                     readGreenColor@tmp:
   153                           	callstack 0
   154   00000A                     readBlueColor@tmp:
   155                           	callstack 0
   156   00000A                     readClearColor@tmp:
   157                           	callstack 0
   158                           
   159                           ; 2 bytes @ 0x9
   160   00000A                     	ds	2
   161   00000C                     ??_main:
   162                           
   163                           ; 1 bytes @ 0xB
   164   00000C                     	ds	2
   165   00000E                     main@red:
   166                           	callstack 0
   167                           
   168                           ; 2 bytes @ 0xD
   169   00000E                     	ds	2
   170   000010                     main@green:
   171                           	callstack 0
   172                           
   173                           ; 2 bytes @ 0xF
   174   000010                     	ds	2
   175   000012                     main@blue:
   176                           	callstack 0
   177                           
   178                           ; 2 bytes @ 0x11
   179   000012                     	ds	2
   180   000014                     main@clear:
   181                           	callstack 0
   182                           
   183                           ; 2 bytes @ 0x13
   184   000014                     	ds	2
   185                           
   186 ;;
   187 ;;Main: autosize = 0, tempsize = 2, incstack = 0, save=0
   188 ;;
   189 ;; *************** function _main *****************
   190 ;; Defined at:
   191 ;;		line 18 in file "main.c"
   192 ;; Parameters:    Size  Location     Type
   193 ;;		None
   194 ;; Auto vars:     Size  Location     Type
   195 ;;  clear           2   19[COMRAM] unsigned int 
   196 ;;  blue            2   17[COMRAM] unsigned int 
   197 ;;  green           2   15[COMRAM] unsigned int 
   198 ;;  red             2   13[COMRAM] unsigned int 
   199 ;; Return value:  Size  Location     Type
   200 ;;                  1    wreg      void 
   201 ;; Registers used:
   202 ;;		wreg, status,2, status,0, cstack
   203 ;; Tracked objects:
   204 ;;		On entry : 0/0
   205 ;;		On exit  : 0/0
   206 ;;		Unchanged: 0/0
   207 ;; Data sizes:     COMRAM   BANK0   BANK1   BANK2   BANK3   BANK4   BANK5   BANK6   BANK7   BANK8   BANK9  BANK10  BANK1
      +1  BANK12  BANK13
   208 ;;      Params:         0       0       0       0       0       0       0       0       0       0       0       0       
      +0       0       0
   209 ;;      Locals:         8       0       0       0       0       0       0       0       0       0       0       0       
      +0       0       0
   210 ;;      Temps:          2       0       0       0       0       0       0       0       0       0       0       0       
      +0       0       0
   211 ;;      Totals:        10       0       0       0       0       0       0       0       0       0       0       0       
      +0       0       0
   212 ;;Total ram usage:       10 bytes
   213 ;; Hardware stack levels required when called: 5
   214 ;; This function calls:
   215 ;;		_LEDturnOFF
   216 ;;		_LEDturnON
   217 ;;		_color_click_init
   218 ;;		_init_buttons_LED
   219 ;;		_readBlueColor
   220 ;;		_readClearColor
   221 ;;		_readGreenColor
   222 ;;		_readRedColor
   223 ;; This function is called by:
   224 ;;		Startup code after reset
   225 ;; This function uses a non-reentrant model
   226 ;;
   227                           
   228                           	psect	text0
   229   000E02                     __ptext0:
   230                           	callstack 0
   231   000E02                     _main:
   232                           	callstack 26
   233   000E02                     
   234                           ;main.c: 19:     color_click_init();
   235   000E02  EC64  F008         	call	_color_click_init	;wreg free
   236   000E06                     
   237                           ;main.c: 20:     init_buttons_LED();
   238   000E06  ECB7  F008         	call	_init_buttons_LED	;wreg free
   239   000E0A                     l1007:
   240                           
   241                           ;main.c: 23:         TRISDbits.TRISD7 = 0;
   242   000E0A  9E84               	bcf	132,7,c	;volatile
   243   000E0C                     
   244                           ;main.c: 24:         LATDbits.LATD7 = 0;
   245   000E0C  9E7C               	bcf	124,7,c	;volatile
   246   000E0E                     
   247                           ;main.c: 26:         LEDturnON();
   248   000E0E  ECD8  F008         	call	_LEDturnON	;wreg free
   249   000E12                     
   250                           ;main.c: 27:         _delay((unsigned long)((1000)*(64000000/4000.0)));
   251   000E12  0E52               	movlw	82
   252   000E14  6E0D               	movwf	(??_main+1)^0,c
   253   000E16  0E2B               	movlw	43
   254   000E18  6E0C               	movwf	??_main^0,c
   255   000E1A  0E00               	movlw	0
   256   000E1C                     u137:
   257   000E1C  2EE8               	decfsz	wreg,f,c
   258   000E1E  D7FE               	bra	u137
   259   000E20  2E0C               	decfsz	??_main^0,f,c
   260   000E22  D7FC               	bra	u137
   261   000E24  2E0D               	decfsz	(??_main+1)^0,f,c
   262   000E26  D7FA               	bra	u137
   263   000E28  D000               	nop2	
   264   000E2A                     
   265                           ;main.c: 28:         unsigned int red = readRedColor();
   266   000E2A  ECA3  F007         	call	_readRedColor	;wreg free
   267   000E2E  C005  F00E         	movff	?_readRedColor,main@red
   268   000E32  C006  F00F         	movff	?_readRedColor+1,main@red+1
   269   000E36                     
   270                           ;main.c: 29:         unsigned int green = readGreenColor();
   271   000E36  ECCB  F007         	call	_readGreenColor	;wreg free
   272   000E3A  C005  F010         	movff	?_readGreenColor,main@green
   273   000E3E  C006  F011         	movff	?_readGreenColor+1,main@green+1
   274   000E42                     
   275                           ;main.c: 30:         unsigned int blue = readBlueColor();
   276   000E42  EC1B  F008         	call	_readBlueColor	;wreg free
   277   000E46  C005  F012         	movff	?_readBlueColor,main@blue
   278   000E4A  C006  F013         	movff	?_readBlueColor+1,main@blue+1
   279   000E4E                     
   280                           ;main.c: 31:         unsigned int clear = readClearColor();
   281   000E4E  ECF3  F007         	call	_readClearColor	;wreg free
   282   000E52  C005  F014         	movff	?_readClearColor,main@clear
   283   000E56  C006  F015         	movff	?_readClearColor+1,main@clear+1
   284   000E5A                     
   285                           ;main.c: 32:         LEDturnOFF();
   286   000E5A  ECDC  F008         	call	_LEDturnOFF	;wreg free
   287   000E5E                     
   288                           ;main.c: 34:         if (red > 100) {
   289   000E5E  500F               	movf	(main@red+1)^0,w,c
   290   000E60  E109               	bnz	u90
   291   000E62  0E65               	movlw	101
   292   000E64  5C0E               	subwf	main@red^0,w,c
   293   000E66  A0D8               	btfss	status,0,c
   294   000E68  EF38  F007         	goto	u91
   295   000E6C  EF3A  F007         	goto	u90
   296   000E70                     u91:
   297   000E70  EF48  F007         	goto	l1033
   298   000E74                     u90:
   299   000E74                     
   300                           ;main.c: 35:             LATDbits.LATD7 = 1;
   301   000E74  8E7C               	bsf	124,7,c	;volatile
   302   000E76                     
   303                           ;main.c: 36:             _delay((unsigned long)((1000)*(64000000/4000.0)));
   304   000E76  0E52               	movlw	82
   305   000E78  6E0D               	movwf	(??_main+1)^0,c
   306   000E7A  0E2B               	movlw	43
   307   000E7C  6E0C               	movwf	??_main^0,c
   308   000E7E  0E00               	movlw	0
   309   000E80                     u147:
   310   000E80  2EE8               	decfsz	wreg,f,c
   311   000E82  D7FE               	bra	u147
   312   000E84  2E0C               	decfsz	??_main^0,f,c
   313   000E86  D7FC               	bra	u147
   314   000E88  2E0D               	decfsz	(??_main+1)^0,f,c
   315   000E8A  D7FA               	bra	u147
   316   000E8C  D000               	nop2	
   317   000E8E                     
   318                           ;main.c: 37:             LATDbits.LATD7 = 0;
   319   000E8E  9E7C               	bcf	124,7,c	;volatile
   320   000E90                     l1033:
   321                           
   322                           ;main.c: 40:         if (green > 100) {
   323   000E90  5011               	movf	(main@green+1)^0,w,c
   324   000E92  E109               	bnz	u100
   325   000E94  0E65               	movlw	101
   326   000E96  5C10               	subwf	main@green^0,w,c
   327   000E98  A0D8               	btfss	status,0,c
   328   000E9A  EF51  F007         	goto	u101
   329   000E9E  EF53  F007         	goto	u100
   330   000EA2                     u101:
   331   000EA2  EF61  F007         	goto	l1041
   332   000EA6                     u100:
   333   000EA6                     
   334                           ;main.c: 41:             LATDbits.LATD7 = 1;
   335   000EA6  8E7C               	bsf	124,7,c	;volatile
   336   000EA8                     
   337                           ;main.c: 42:             _delay((unsigned long)((1000)*(64000000/4000.0)));
   338   000EA8  0E52               	movlw	82
   339   000EAA  6E0D               	movwf	(??_main+1)^0,c
   340   000EAC  0E2B               	movlw	43
   341   000EAE  6E0C               	movwf	??_main^0,c
   342   000EB0  0E00               	movlw	0
   343   000EB2                     u157:
   344   000EB2  2EE8               	decfsz	wreg,f,c
   345   000EB4  D7FE               	bra	u157
   346   000EB6  2E0C               	decfsz	??_main^0,f,c
   347   000EB8  D7FC               	bra	u157
   348   000EBA  2E0D               	decfsz	(??_main+1)^0,f,c
   349   000EBC  D7FA               	bra	u157
   350   000EBE  D000               	nop2	
   351   000EC0                     
   352                           ;main.c: 43:             LATDbits.LATD7 = 0;
   353   000EC0  9E7C               	bcf	124,7,c	;volatile
   354   000EC2                     l1041:
   355                           
   356                           ;main.c: 46:         if (blue > 100) {
   357   000EC2  5013               	movf	(main@blue+1)^0,w,c
   358   000EC4  E109               	bnz	u110
   359   000EC6  0E65               	movlw	101
   360   000EC8  5C12               	subwf	main@blue^0,w,c
   361   000ECA  A0D8               	btfss	status,0,c
   362   000ECC  EF6A  F007         	goto	u111
   363   000ED0  EF6C  F007         	goto	u110
   364   000ED4                     u111:
   365   000ED4  EF7A  F007         	goto	l1049
   366   000ED8                     u110:
   367   000ED8                     
   368                           ;main.c: 47:             LATDbits.LATD7 = 1;
   369   000ED8  8E7C               	bsf	124,7,c	;volatile
   370   000EDA                     
   371                           ;main.c: 48:             _delay((unsigned long)((1000)*(64000000/4000.0)));
   372   000EDA  0E52               	movlw	82
   373   000EDC  6E0D               	movwf	(??_main+1)^0,c
   374   000EDE  0E2B               	movlw	43
   375   000EE0  6E0C               	movwf	??_main^0,c
   376   000EE2  0E00               	movlw	0
   377   000EE4                     u167:
   378   000EE4  2EE8               	decfsz	wreg,f,c
   379   000EE6  D7FE               	bra	u167
   380   000EE8  2E0C               	decfsz	??_main^0,f,c
   381   000EEA  D7FC               	bra	u167
   382   000EEC  2E0D               	decfsz	(??_main+1)^0,f,c
   383   000EEE  D7FA               	bra	u167
   384   000EF0  D000               	nop2	
   385   000EF2                     
   386                           ;main.c: 49:             LATDbits.LATD7 = 0;
   387   000EF2  9E7C               	bcf	124,7,c	;volatile
   388   000EF4                     l1049:
   389                           
   390                           ;main.c: 52:         if (clear > 100) {
   391   000EF4  5015               	movf	(main@clear+1)^0,w,c
   392   000EF6  E109               	bnz	u120
   393   000EF8  0E65               	movlw	101
   394   000EFA  5C14               	subwf	main@clear^0,w,c
   395   000EFC  A0D8               	btfss	status,0,c
   396   000EFE  EF83  F007         	goto	u121
   397   000F02  EF85  F007         	goto	u120
   398   000F06                     u121:
   399   000F06  EF93  F007         	goto	l113
   400   000F0A                     u120:
   401   000F0A                     
   402                           ;main.c: 53:             LATDbits.LATD7 = 1;
   403   000F0A  8E7C               	bsf	124,7,c	;volatile
   404   000F0C                     
   405                           ;main.c: 54:             _delay((unsigned long)((1000)*(64000000/4000.0)));
   406   000F0C  0E52               	movlw	82
   407   000F0E  6E0D               	movwf	(??_main+1)^0,c
   408   000F10  0E2B               	movlw	43
   409   000F12  6E0C               	movwf	??_main^0,c
   410   000F14  0E00               	movlw	0
   411   000F16                     u177:
   412   000F16  2EE8               	decfsz	wreg,f,c
   413   000F18  D7FE               	bra	u177
   414   000F1A  2E0C               	decfsz	??_main^0,f,c
   415   000F1C  D7FC               	bra	u177
   416   000F1E  2E0D               	decfsz	(??_main+1)^0,f,c
   417   000F20  D7FA               	bra	u177
   418   000F22  D000               	nop2	
   419   000F24                     
   420                           ;main.c: 55:             LATDbits.LATD7 = 0;
   421   000F24  9E7C               	bcf	124,7,c	;volatile
   422   000F26                     l113:
   423                           
   424                           ;main.c: 58:         _delay((unsigned long)((1000)*(64000000/4000.0)));
   425   000F26  0E52               	movlw	82
   426   000F28  6E0D               	movwf	(??_main+1)^0,c
   427   000F2A  0E2B               	movlw	43
   428   000F2C  6E0C               	movwf	??_main^0,c
   429   000F2E  0E00               	movlw	0
   430   000F30                     u187:
   431   000F30  2EE8               	decfsz	wreg,f,c
   432   000F32  D7FE               	bra	u187
   433   000F34  2E0C               	decfsz	??_main^0,f,c
   434   000F36  D7FC               	bra	u187
   435   000F38  2E0D               	decfsz	(??_main+1)^0,f,c
   436   000F3A  D7FA               	bra	u187
   437   000F3C  D000               	nop2	
   438   000F3E  EF05  F007         	goto	l1007
   439   000F42  EF07  F000         	goto	start
   440   000F46                     __end_of_main:
   441                           	callstack 0
   442                           
   443 ;; *************** function _readRedColor *****************
   444 ;; Defined at:
   445 ;;		line 39 in file "color.c"
   446 ;; Parameters:    Size  Location     Type
   447 ;;		None
   448 ;; Auto vars:     Size  Location     Type
   449 ;;  tmp             2    9[COMRAM] unsigned int 
   450 ;; Return value:  Size  Location     Type
   451 ;;                  2    4[COMRAM] unsigned int 
   452 ;; Registers used:
   453 ;;		wreg, status,2, status,0, cstack
   454 ;; Tracked objects:
   455 ;;		On entry : 0/0
   456 ;;		On exit  : 0/0
   457 ;;		Unchanged: 0/0
   458 ;; Data sizes:     COMRAM   BANK0   BANK1   BANK2   BANK3   BANK4   BANK5   BANK6   BANK7   BANK8   BANK9  BANK10  BANK1
      +1  BANK12  BANK13
   459 ;;      Params:         2       0       0       0       0       0       0       0       0       0       0       0       
      +0       0       0
   460 ;;      Locals:         2       0       0       0       0       0       0       0       0       0       0       0       
      +0       0       0
   461 ;;      Temps:          3       0       0       0       0       0       0       0       0       0       0       0       
      +0       0       0
   462 ;;      Totals:         7       0       0       0       0       0       0       0       0       0       0       0       
      +0       0       0
   463 ;;Total ram usage:        7 bytes
   464 ;; Hardware stack levels used: 1
   465 ;; Hardware stack levels required when called: 3
   466 ;; This function calls:
   467 ;;		_I2C_2_Master_Read
   468 ;;		_I2C_2_Master_RepStart
   469 ;;		_I2C_2_Master_Start
   470 ;;		_I2C_2_Master_Stop
   471 ;;		_I2C_2_Master_Write
   472 ;; This function is called by:
   473 ;;		_main
   474 ;; This function uses a non-reentrant model
   475 ;;
   476                           
   477                           	psect	text1
   478   000F46                     __ptext1:
   479                           	callstack 0
   480   000F46                     _readRedColor:
   481                           	callstack 27
   482   000F46                     
   483                           ;color.c: 41:  unsigned int tmp;;color.c: 42:  I2C_2_Master_Start();
   484   000F46  ECD3  F008         	call	_I2C_2_Master_Start	;wreg free
   485                           
   486                           ;color.c: 43:  I2C_2_Master_Write(0x52 | 0x00);
   487   000F4A  0E52               	movlw	82
   488   000F4C  ECBE  F008         	call	_I2C_2_Master_Write
   489                           
   490                           ;color.c: 44:  I2C_2_Master_Write(0xA0 | 0x16);
   491   000F50  0EB6               	movlw	182
   492   000F52  ECBE  F008         	call	_I2C_2_Master_Write
   493                           
   494                           ;color.c: 45:  I2C_2_Master_RepStart();
   495   000F56  ECC9  F008         	call	_I2C_2_Master_RepStart	;wreg free
   496                           
   497                           ;color.c: 46:  I2C_2_Master_Write(0x52 | 0x01);
   498   000F5A  0E53               	movlw	83
   499   000F5C  ECBE  F008         	call	_I2C_2_Master_Write
   500                           
   501                           ;color.c: 47:  tmp=I2C_2_Master_Read(1);
   502   000F60  0E01               	movlw	1
   503   000F62  EC43  F008         	call	_I2C_2_Master_Read
   504   000F66  6E07               	movwf	??_readRedColor^0,c
   505   000F68  5007               	movf	??_readRedColor^0,w,c
   506   000F6A  6E0A               	movwf	readRedColor@tmp^0,c
   507   000F6C  6A0B               	clrf	(readRedColor@tmp+1)^0,c
   508                           
   509                           ;color.c: 48:  tmp=tmp | (I2C_2_Master_Read(0)<<8);
   510   000F6E  0E00               	movlw	0
   511   000F70  EC43  F008         	call	_I2C_2_Master_Read
   512   000F74  6E07               	movwf	??_readRedColor^0,c
   513   000F76  5007               	movf	??_readRedColor^0,w,c
   514   000F78  6E09               	movwf	(??_readRedColor+2)^0,c
   515   000F7A  6A08               	clrf	(??_readRedColor+1)^0,c
   516   000F7C  500A               	movf	readRedColor@tmp^0,w,c
   517   000F7E  1008               	iorwf	(??_readRedColor+1)^0,w,c
   518   000F80  6E0A               	movwf	readRedColor@tmp^0,c
   519   000F82  500B               	movf	(readRedColor@tmp+1)^0,w,c
   520   000F84  1009               	iorwf	(??_readRedColor+2)^0,w,c
   521   000F86  6E0B               	movwf	(readRedColor@tmp+1)^0,c
   522                           
   523                           ;color.c: 49:  I2C_2_Master_Stop();
   524   000F88  ECCE  F008         	call	_I2C_2_Master_Stop	;wreg free
   525   000F8C                     
   526                           ;color.c: 50:  return tmp;
   527   000F8C  C00A  F005         	movff	readRedColor@tmp,?_readRedColor
   528   000F90  C00B  F006         	movff	readRedColor@tmp+1,?_readRedColor+1
   529   000F94  0012               	return		;funcret
   530   000F96                     __end_of_readRedColor:
   531                           	callstack 0
   532                           
   533 ;; *************** function _readGreenColor *****************
   534 ;; Defined at:
   535 ;;		line 53 in file "color.c"
   536 ;; Parameters:    Size  Location     Type
   537 ;;		None
   538 ;; Auto vars:     Size  Location     Type
   539 ;;  tmp             2    9[COMRAM] unsigned int 
   540 ;; Return value:  Size  Location     Type
   541 ;;                  2    4[COMRAM] unsigned int 
   542 ;; Registers used:
   543 ;;		wreg, status,2, status,0, cstack
   544 ;; Tracked objects:
   545 ;;		On entry : 0/0
   546 ;;		On exit  : 0/0
   547 ;;		Unchanged: 0/0
   548 ;; Data sizes:     COMRAM   BANK0   BANK1   BANK2   BANK3   BANK4   BANK5   BANK6   BANK7   BANK8   BANK9  BANK10  BANK1
      +1  BANK12  BANK13
   549 ;;      Params:         2       0       0       0       0       0       0       0       0       0       0       0       
      +0       0       0
   550 ;;      Locals:         2       0       0       0       0       0       0       0       0       0       0       0       
      +0       0       0
   551 ;;      Temps:          3       0       0       0       0       0       0       0       0       0       0       0       
      +0       0       0
   552 ;;      Totals:         7       0       0       0       0       0       0       0       0       0       0       0       
      +0       0       0
   553 ;;Total ram usage:        7 bytes
   554 ;; Hardware stack levels used: 1
   555 ;; Hardware stack levels required when called: 3
   556 ;; This function calls:
   557 ;;		_I2C_2_Master_Read
   558 ;;		_I2C_2_Master_RepStart
   559 ;;		_I2C_2_Master_Start
   560 ;;		_I2C_2_Master_Stop
   561 ;;		_I2C_2_Master_Write
   562 ;; This function is called by:
   563 ;;		_main
   564 ;; This function uses a non-reentrant model
   565 ;;
   566                           
   567                           	psect	text2
   568   000F96                     __ptext2:
   569                           	callstack 0
   570   000F96                     _readGreenColor:
   571                           	callstack 27
   572   000F96                     
   573                           ;color.c: 55:  unsigned int tmp;;color.c: 56:  I2C_2_Master_Start();
   574   000F96  ECD3  F008         	call	_I2C_2_Master_Start	;wreg free
   575                           
   576                           ;color.c: 57:  I2C_2_Master_Write(0x52 | 0x00);
   577   000F9A  0E52               	movlw	82
   578   000F9C  ECBE  F008         	call	_I2C_2_Master_Write
   579                           
   580                           ;color.c: 58:  I2C_2_Master_Write(0xA0 | 0x18);
   581   000FA0  0EB8               	movlw	184
   582   000FA2  ECBE  F008         	call	_I2C_2_Master_Write
   583                           
   584                           ;color.c: 59:  I2C_2_Master_RepStart();
   585   000FA6  ECC9  F008         	call	_I2C_2_Master_RepStart	;wreg free
   586                           
   587                           ;color.c: 60:  I2C_2_Master_Write(0x52 | 0x01);
   588   000FAA  0E53               	movlw	83
   589   000FAC  ECBE  F008         	call	_I2C_2_Master_Write
   590                           
   591                           ;color.c: 61:  tmp=I2C_2_Master_Read(1);
   592   000FB0  0E01               	movlw	1
   593   000FB2  EC43  F008         	call	_I2C_2_Master_Read
   594   000FB6  6E07               	movwf	??_readGreenColor^0,c
   595   000FB8  5007               	movf	??_readGreenColor^0,w,c
   596   000FBA  6E0A               	movwf	readGreenColor@tmp^0,c
   597   000FBC  6A0B               	clrf	(readGreenColor@tmp+1)^0,c
   598                           
   599                           ;color.c: 62:  tmp=tmp | (I2C_2_Master_Read(0)<<8);
   600   000FBE  0E00               	movlw	0
   601   000FC0  EC43  F008         	call	_I2C_2_Master_Read
   602   000FC4  6E07               	movwf	??_readGreenColor^0,c
   603   000FC6  5007               	movf	??_readGreenColor^0,w,c
   604   000FC8  6E09               	movwf	(??_readGreenColor+2)^0,c
   605   000FCA  6A08               	clrf	(??_readGreenColor+1)^0,c
   606   000FCC  500A               	movf	readGreenColor@tmp^0,w,c
   607   000FCE  1008               	iorwf	(??_readGreenColor+1)^0,w,c
   608   000FD0  6E0A               	movwf	readGreenColor@tmp^0,c
   609   000FD2  500B               	movf	(readGreenColor@tmp+1)^0,w,c
   610   000FD4  1009               	iorwf	(??_readGreenColor+2)^0,w,c
   611   000FD6  6E0B               	movwf	(readGreenColor@tmp+1)^0,c
   612                           
   613                           ;color.c: 63:  I2C_2_Master_Stop();
   614   000FD8  ECCE  F008         	call	_I2C_2_Master_Stop	;wreg free
   615   000FDC                     
   616                           ;color.c: 64:  return tmp;
   617   000FDC  C00A  F005         	movff	readGreenColor@tmp,?_readGreenColor
   618   000FE0  C00B  F006         	movff	readGreenColor@tmp+1,?_readGreenColor+1
   619   000FE4  0012               	return		;funcret
   620   000FE6                     __end_of_readGreenColor:
   621                           	callstack 0
   622                           
   623 ;; *************** function _readClearColor *****************
   624 ;; Defined at:
   625 ;;		line 81 in file "color.c"
   626 ;; Parameters:    Size  Location     Type
   627 ;;		None
   628 ;; Auto vars:     Size  Location     Type
   629 ;;  tmp             2    9[COMRAM] unsigned int 
   630 ;; Return value:  Size  Location     Type
   631 ;;                  2    4[COMRAM] unsigned int 
   632 ;; Registers used:
   633 ;;		wreg, status,2, status,0, cstack
   634 ;; Tracked objects:
   635 ;;		On entry : 0/0
   636 ;;		On exit  : 0/0
   637 ;;		Unchanged: 0/0
   638 ;; Data sizes:     COMRAM   BANK0   BANK1   BANK2   BANK3   BANK4   BANK5   BANK6   BANK7   BANK8   BANK9  BANK10  BANK1
      +1  BANK12  BANK13
   639 ;;      Params:         2       0       0       0       0       0       0       0       0       0       0       0       
      +0       0       0
   640 ;;      Locals:         2       0       0       0       0       0       0       0       0       0       0       0       
      +0       0       0
   641 ;;      Temps:          3       0       0       0       0       0       0       0       0       0       0       0       
      +0       0       0
   642 ;;      Totals:         7       0       0       0       0       0       0       0       0       0       0       0       
      +0       0       0
   643 ;;Total ram usage:        7 bytes
   644 ;; Hardware stack levels used: 1
   645 ;; Hardware stack levels required when called: 3
   646 ;; This function calls:
   647 ;;		_I2C_2_Master_Read
   648 ;;		_I2C_2_Master_RepStart
   649 ;;		_I2C_2_Master_Start
   650 ;;		_I2C_2_Master_Stop
   651 ;;		_I2C_2_Master_Write
   652 ;; This function is called by:
   653 ;;		_main
   654 ;; This function uses a non-reentrant model
   655 ;;
   656                           
   657                           	psect	text3
   658   000FE6                     __ptext3:
   659                           	callstack 0
   660   000FE6                     _readClearColor:
   661                           	callstack 27
   662   000FE6                     
   663                           ;color.c: 83:  unsigned int tmp;;color.c: 84:  I2C_2_Master_Start();
   664   000FE6  ECD3  F008         	call	_I2C_2_Master_Start	;wreg free
   665                           
   666                           ;color.c: 85:  I2C_2_Master_Write(0x52 | 0x00);
   667   000FEA  0E52               	movlw	82
   668   000FEC  ECBE  F008         	call	_I2C_2_Master_Write
   669                           
   670                           ;color.c: 86:  I2C_2_Master_Write(0xA0 | 0x14);
   671   000FF0  0EB4               	movlw	180
   672   000FF2  ECBE  F008         	call	_I2C_2_Master_Write
   673                           
   674                           ;color.c: 87:  I2C_2_Master_RepStart();
   675   000FF6  ECC9  F008         	call	_I2C_2_Master_RepStart	;wreg free
   676                           
   677                           ;color.c: 88:  I2C_2_Master_Write(0x52 | 0x01);
   678   000FFA  0E53               	movlw	83
   679   000FFC  ECBE  F008         	call	_I2C_2_Master_Write
   680                           
   681                           ;color.c: 89:  tmp=I2C_2_Master_Read(1);
   682   001000  0E01               	movlw	1
   683   001002  EC43  F008         	call	_I2C_2_Master_Read
   684   001006  6E07               	movwf	??_readClearColor^0,c
   685   001008  5007               	movf	??_readClearColor^0,w,c
   686   00100A  6E0A               	movwf	readClearColor@tmp^0,c
   687   00100C  6A0B               	clrf	(readClearColor@tmp+1)^0,c
   688                           
   689                           ;color.c: 90:  tmp=tmp | (I2C_2_Master_Read(0)<<8);
   690   00100E  0E00               	movlw	0
   691   001010  EC43  F008         	call	_I2C_2_Master_Read
   692   001014  6E07               	movwf	??_readClearColor^0,c
   693   001016  5007               	movf	??_readClearColor^0,w,c
   694   001018  6E09               	movwf	(??_readClearColor+2)^0,c
   695   00101A  6A08               	clrf	(??_readClearColor+1)^0,c
   696   00101C  500A               	movf	readClearColor@tmp^0,w,c
   697   00101E  1008               	iorwf	(??_readClearColor+1)^0,w,c
   698   001020  6E0A               	movwf	readClearColor@tmp^0,c
   699   001022  500B               	movf	(readClearColor@tmp+1)^0,w,c
   700   001024  1009               	iorwf	(??_readClearColor+2)^0,w,c
   701   001026  6E0B               	movwf	(readClearColor@tmp+1)^0,c
   702                           
   703                           ;color.c: 91:  I2C_2_Master_Stop();
   704   001028  ECCE  F008         	call	_I2C_2_Master_Stop	;wreg free
   705   00102C                     
   706                           ;color.c: 92:  return tmp;
   707   00102C  C00A  F005         	movff	readClearColor@tmp,?_readClearColor
   708   001030  C00B  F006         	movff	readClearColor@tmp+1,?_readClearColor+1
   709   001034  0012               	return		;funcret
   710   001036                     __end_of_readClearColor:
   711                           	callstack 0
   712                           
   713 ;; *************** function _readBlueColor *****************
   714 ;; Defined at:
   715 ;;		line 67 in file "color.c"
   716 ;; Parameters:    Size  Location     Type
   717 ;;		None
   718 ;; Auto vars:     Size  Location     Type
   719 ;;  tmp             2    9[COMRAM] unsigned int 
   720 ;; Return value:  Size  Location     Type
   721 ;;                  2    4[COMRAM] unsigned int 
   722 ;; Registers used:
   723 ;;		wreg, status,2, status,0, cstack
   724 ;; Tracked objects:
   725 ;;		On entry : 0/0
   726 ;;		On exit  : 0/0
   727 ;;		Unchanged: 0/0
   728 ;; Data sizes:     COMRAM   BANK0   BANK1   BANK2   BANK3   BANK4   BANK5   BANK6   BANK7   BANK8   BANK9  BANK10  BANK1
      +1  BANK12  BANK13
   729 ;;      Params:         2       0       0       0       0       0       0       0       0       0       0       0       
      +0       0       0
   730 ;;      Locals:         2       0       0       0       0       0       0       0       0       0       0       0       
      +0       0       0
   731 ;;      Temps:          3       0       0       0       0       0       0       0       0       0       0       0       
      +0       0       0
   732 ;;      Totals:         7       0       0       0       0       0       0       0       0       0       0       0       
      +0       0       0
   733 ;;Total ram usage:        7 bytes
   734 ;; Hardware stack levels used: 1
   735 ;; Hardware stack levels required when called: 3
   736 ;; This function calls:
   737 ;;		_I2C_2_Master_Read
   738 ;;		_I2C_2_Master_RepStart
   739 ;;		_I2C_2_Master_Start
   740 ;;		_I2C_2_Master_Stop
   741 ;;		_I2C_2_Master_Write
   742 ;; This function is called by:
   743 ;;		_main
   744 ;; This function uses a non-reentrant model
   745 ;;
   746                           
   747                           	psect	text4
   748   001036                     __ptext4:
   749                           	callstack 0
   750   001036                     _readBlueColor:
   751                           	callstack 27
   752   001036                     
   753                           ;color.c: 69:  unsigned int tmp;;color.c: 70:  I2C_2_Master_Start();
   754   001036  ECD3  F008         	call	_I2C_2_Master_Start	;wreg free
   755                           
   756                           ;color.c: 71:  I2C_2_Master_Write(0x52 | 0x00);
   757   00103A  0E52               	movlw	82
   758   00103C  ECBE  F008         	call	_I2C_2_Master_Write
   759                           
   760                           ;color.c: 72:  I2C_2_Master_Write(0xA0 | 0x1A);
   761   001040  0EBA               	movlw	186
   762   001042  ECBE  F008         	call	_I2C_2_Master_Write
   763                           
   764                           ;color.c: 73:  I2C_2_Master_RepStart();
   765   001046  ECC9  F008         	call	_I2C_2_Master_RepStart	;wreg free
   766                           
   767                           ;color.c: 74:  I2C_2_Master_Write(0x52 | 0x01);
   768   00104A  0E53               	movlw	83
   769   00104C  ECBE  F008         	call	_I2C_2_Master_Write
   770                           
   771                           ;color.c: 75:  tmp=I2C_2_Master_Read(1);
   772   001050  0E01               	movlw	1
   773   001052  EC43  F008         	call	_I2C_2_Master_Read
   774   001056  6E07               	movwf	??_readBlueColor^0,c
   775   001058  5007               	movf	??_readBlueColor^0,w,c
   776   00105A  6E0A               	movwf	readBlueColor@tmp^0,c
   777   00105C  6A0B               	clrf	(readBlueColor@tmp+1)^0,c
   778                           
   779                           ;color.c: 76:  tmp=tmp | (I2C_2_Master_Read(0)<<8);
   780   00105E  0E00               	movlw	0
   781   001060  EC43  F008         	call	_I2C_2_Master_Read
   782   001064  6E07               	movwf	??_readBlueColor^0,c
   783   001066  5007               	movf	??_readBlueColor^0,w,c
   784   001068  6E09               	movwf	(??_readBlueColor+2)^0,c
   785   00106A  6A08               	clrf	(??_readBlueColor+1)^0,c
   786   00106C  500A               	movf	readBlueColor@tmp^0,w,c
   787   00106E  1008               	iorwf	(??_readBlueColor+1)^0,w,c
   788   001070  6E0A               	movwf	readBlueColor@tmp^0,c
   789   001072  500B               	movf	(readBlueColor@tmp+1)^0,w,c
   790   001074  1009               	iorwf	(??_readBlueColor+2)^0,w,c
   791   001076  6E0B               	movwf	(readBlueColor@tmp+1)^0,c
   792                           
   793                           ;color.c: 77:  I2C_2_Master_Stop();
   794   001078  ECCE  F008         	call	_I2C_2_Master_Stop	;wreg free
   795   00107C                     
   796                           ;color.c: 78:  return tmp;
   797   00107C  C00A  F005         	movff	readBlueColor@tmp,?_readBlueColor
   798   001080  C00B  F006         	movff	readBlueColor@tmp+1,?_readBlueColor+1
   799   001084  0012               	return		;funcret
   800   001086                     __end_of_readBlueColor:
   801                           	callstack 0
   802                           
   803 ;; *************** function _I2C_2_Master_RepStart *****************
   804 ;; Defined at:
   805 ;;		line 33 in file "i2c.c"
   806 ;; Parameters:    Size  Location     Type
   807 ;;		None
   808 ;; Auto vars:     Size  Location     Type
   809 ;;		None
   810 ;; Return value:  Size  Location     Type
   811 ;;                  1    wreg      void 
   812 ;; Registers used:
   813 ;;		wreg, status,2, status,0, cstack
   814 ;; Tracked objects:
   815 ;;		On entry : 0/0
   816 ;;		On exit  : 0/0
   817 ;;		Unchanged: 0/0
   818 ;; Data sizes:     COMRAM   BANK0   BANK1   BANK2   BANK3   BANK4   BANK5   BANK6   BANK7   BANK8   BANK9  BANK10  BANK1
      +1  BANK12  BANK13
   819 ;;      Params:         0       0       0       0       0       0       0       0       0       0       0       0       
      +0       0       0
   820 ;;      Locals:         0       0       0       0       0       0       0       0       0       0       0       0       
      +0       0       0
   821 ;;      Temps:          0       0       0       0       0       0       0       0       0       0       0       0       
      +0       0       0
   822 ;;      Totals:         0       0       0       0       0       0       0       0       0       0       0       0       
      +0       0       0
   823 ;;Total ram usage:        0 bytes
   824 ;; Hardware stack levels used: 1
   825 ;; Hardware stack levels required when called: 2
   826 ;; This function calls:
   827 ;;		_I2C_2_Master_Idle
   828 ;; This function is called by:
   829 ;;		_readRedColor
   830 ;;		_readGreenColor
   831 ;;		_readBlueColor
   832 ;;		_readClearColor
   833 ;; This function uses a non-reentrant model
   834 ;;
   835                           
   836                           	psect	text5
   837   001192                     __ptext5:
   838                           	callstack 0
   839   001192                     _I2C_2_Master_RepStart:
   840                           	callstack 27
   841   001192                     
   842                           ;i2c.c: 35:   I2C_2_Master_Idle();
   843   001192  EC93  F008         	call	_I2C_2_Master_Idle	;wreg free
   844   001196                     
   845                           ;i2c.c: 36:   SSP2CON2bits.RSEN = 1;
   846   001196  010E               	movlb	14	; () banked
   847   001198  83DA               	bsf	218,1,b	;volatile
   848   00119A                     
   849                           ; BSR set to: 14
   850   00119A  0012               	return		;funcret
   851   00119C                     __end_of_I2C_2_Master_RepStart:
   852                           	callstack 0
   853                           
   854 ;; *************** function _I2C_2_Master_Read *****************
   855 ;; Defined at:
   856 ;;		line 51 in file "i2c.c"
   857 ;; Parameters:    Size  Location     Type
   858 ;;  ack             1    wreg     unsigned char 
   859 ;; Auto vars:     Size  Location     Type
   860 ;;  ack             1    2[COMRAM] unsigned char 
   861 ;;  tmp             1    3[COMRAM] unsigned char 
   862 ;; Return value:  Size  Location     Type
   863 ;;                  1    wreg      unsigned char 
   864 ;; Registers used:
   865 ;;		wreg, status,2, status,0, cstack
   866 ;; Tracked objects:
   867 ;;		On entry : 0/0
   868 ;;		On exit  : 0/0
   869 ;;		Unchanged: 0/0
   870 ;; Data sizes:     COMRAM   BANK0   BANK1   BANK2   BANK3   BANK4   BANK5   BANK6   BANK7   BANK8   BANK9  BANK10  BANK1
      +1  BANK12  BANK13
   871 ;;      Params:         0       0       0       0       0       0       0       0       0       0       0       0       
      +0       0       0
   872 ;;      Locals:         2       0       0       0       0       0       0       0       0       0       0       0       
      +0       0       0
   873 ;;      Temps:          1       0       0       0       0       0       0       0       0       0       0       0       
      +0       0       0
   874 ;;      Totals:         3       0       0       0       0       0       0       0       0       0       0       0       
      +0       0       0
   875 ;;Total ram usage:        3 bytes
   876 ;; Hardware stack levels used: 1
   877 ;; Hardware stack levels required when called: 2
   878 ;; This function calls:
   879 ;;		_I2C_2_Master_Idle
   880 ;; This function is called by:
   881 ;;		_readRedColor
   882 ;;		_readGreenColor
   883 ;;		_readBlueColor
   884 ;;		_readClearColor
   885 ;; This function uses a non-reentrant model
   886 ;;
   887                           
   888                           	psect	text6
   889   001086                     __ptext6:
   890                           	callstack 0
   891   001086                     _I2C_2_Master_Read:
   892                           	callstack 27
   893                           
   894                           ; BSR set to: 14
   895                           ;incstack = 0
   896                           ;I2C_2_Master_Read@ack stored from wreg
   897   001086  6E03               	movwf	I2C_2_Master_Read@ack^0,c
   898   001088                     
   899                           ;i2c.c: 51: unsigned char I2C_2_Master_Read(unsigned char ack);i2c.c: 52: {;i2c.c: 53:  
      +                           unsigned char tmp;;i2c.c: 54:   I2C_2_Master_Idle();
   900   001088  EC93  F008         	call	_I2C_2_Master_Idle	;wreg free
   901   00108C                     
   902                           ;i2c.c: 55:   SSP2CON2bits.RCEN = 1;
   903   00108C  010E               	movlb	14	; () banked
   904   00108E  87DA               	bsf	218,3,b	;volatile
   905                           
   906                           ;i2c.c: 56:   I2C_2_Master_Idle();
   907   001090  EC93  F008         	call	_I2C_2_Master_Idle	;wreg free
   908   001094                     
   909                           ;i2c.c: 57:   tmp = SSP2BUF;
   910   001094  CED5 F004          	movff	3797,I2C_2_Master_Read@tmp	;volatile
   911                           
   912                           ;i2c.c: 58:   I2C_2_Master_Idle();
   913   001098  EC93  F008         	call	_I2C_2_Master_Idle	;wreg free
   914   00109C                     
   915                           ;i2c.c: 59:   SSP2CON2bits.ACKDT = !ack;
   916   00109C  5003               	movf	I2C_2_Master_Read@ack^0,w,c
   917   00109E  B4D8               	btfsc	status,2,c
   918   0010A0  EF54  F008         	goto	u31
   919   0010A4  EF58  F008         	goto	u30
   920   0010A8                     u31:
   921   0010A8  6A02               	clrf	??_I2C_2_Master_Read^0,c
   922   0010AA  2A02               	incf	??_I2C_2_Master_Read^0,f,c
   923   0010AC  EF59  F008         	goto	u48
   924   0010B0                     u30:
   925   0010B0  6A02               	clrf	??_I2C_2_Master_Read^0,c
   926   0010B2                     u48:
   927   0010B2  3A02               	swapf	??_I2C_2_Master_Read^0,f,c
   928   0010B4  4602               	rlncf	??_I2C_2_Master_Read^0,f,c
   929   0010B6  010E               	movlb	14	; () banked
   930   0010B8  51DA               	movf	218,w,b	;volatile
   931   0010BA  1802               	xorwf	??_I2C_2_Master_Read^0,w,c
   932   0010BC  0BDF               	andlw	-33
   933   0010BE  1802               	xorwf	??_I2C_2_Master_Read^0,w,c
   934   0010C0  6FDA               	movwf	218,b	;volatile
   935   0010C2                     
   936                           ; BSR set to: 14
   937                           ;i2c.c: 60:   SSP2CON2bits.ACKEN = 1;
   938   0010C2  89DA               	bsf	218,4,b	;volatile
   939   0010C4                     
   940                           ; BSR set to: 14
   941                           ;i2c.c: 61:   return tmp;
   942   0010C4  5004               	movf	I2C_2_Master_Read@tmp^0,w,c
   943   0010C6                     
   944                           ; BSR set to: 14
   945   0010C6  0012               	return		;funcret
   946   0010C8                     __end_of_I2C_2_Master_Read:
   947                           	callstack 0
   948                           
   949 ;; *************** function _init_buttons_LED *****************
   950 ;; Defined at:
   951 ;;		line 6 in file "interact.c"
   952 ;; Parameters:    Size  Location     Type
   953 ;;		None
   954 ;; Auto vars:     Size  Location     Type
   955 ;;		None
   956 ;; Return value:  Size  Location     Type
   957 ;;                  1    wreg      void 
   958 ;; Registers used:
   959 ;;		None
   960 ;; Tracked objects:
   961 ;;		On entry : 0/0
   962 ;;		On exit  : 0/0
   963 ;;		Unchanged: 0/0
   964 ;; Data sizes:     COMRAM   BANK0   BANK1   BANK2   BANK3   BANK4   BANK5   BANK6   BANK7   BANK8   BANK9  BANK10  BANK1
      +1  BANK12  BANK13
   965 ;;      Params:         0       0       0       0       0       0       0       0       0       0       0       0       
      +0       0       0
   966 ;;      Locals:         0       0       0       0       0       0       0       0       0       0       0       0       
      +0       0       0
   967 ;;      Temps:          0       0       0       0       0       0       0       0       0       0       0       0       
      +0       0       0
   968 ;;      Totals:         0       0       0       0       0       0       0       0       0       0       0       0       
      +0       0       0
   969 ;;Total ram usage:        0 bytes
   970 ;; Hardware stack levels used: 1
   971 ;; Hardware stack levels required when called: 1
   972 ;; This function calls:
   973 ;;		Nothing
   974 ;; This function is called by:
   975 ;;		_main
   976 ;; This function uses a non-reentrant model
   977 ;;
   978                           
   979                           	psect	text7
   980   00116E                     __ptext7:
   981                           	callstack 0
   982   00116E                     _init_buttons_LED:
   983                           	callstack 29
   984   00116E                     
   985                           ;interact.c: 9:     TRISGbits.TRISG0 = 0;
   986   00116E  9087               	bcf	135,0,c	;volatile
   987                           
   988                           ;interact.c: 10:     TRISEbits.TRISE7 = 0;
   989   001170  9E85               	bcf	133,7,c	;volatile
   990                           
   991                           ;interact.c: 11:     TRISAbits.TRISA3 = 0;
   992   001172  9681               	bcf	129,3,c	;volatile
   993                           
   994                           ;interact.c: 14:     LATGbits.LATG0 = 0;
   995   001174  907F               	bcf	127,0,c	;volatile
   996                           
   997                           ;interact.c: 15:     LATEbits.LATE7 = 0;
   998   001176  9E7D               	bcf	125,7,c	;volatile
   999                           
  1000                           ;interact.c: 16:     LATAbits.LATA3 = 0;
  1001   001178  9679               	bcf	121,3,c	;volatile
  1002   00117A  0012               	return		;funcret
  1003   00117C                     __end_of_init_buttons_LED:
  1004                           	callstack 0
  1005                           
  1006 ;; *************** function _color_click_init *****************
  1007 ;; Defined at:
  1008 ;;		line 6 in file "color.c"
  1009 ;; Parameters:    Size  Location     Type
  1010 ;;		None
  1011 ;; Auto vars:     Size  Location     Type
  1012 ;;		None
  1013 ;; Return value:  Size  Location     Type
  1014 ;;                  1    wreg      void 
  1015 ;; Registers used:
  1016 ;;		wreg, status,2, status,0, cstack
  1017 ;; Tracked objects:
  1018 ;;		On entry : 0/0
  1019 ;;		On exit  : 0/0
  1020 ;;		Unchanged: 0/0
  1021 ;; Data sizes:     COMRAM   BANK0   BANK1   BANK2   BANK3   BANK4   BANK5   BANK6   BANK7   BANK8   BANK9  BANK10  BANK1
      +1  BANK12  BANK13
  1022 ;;      Params:         0       0       0       0       0       0       0       0       0       0       0       0       
      +0       0       0
  1023 ;;      Locals:         0       0       0       0       0       0       0       0       0       0       0       0       
      +0       0       0
  1024 ;;      Temps:          1       0       0       0       0       0       0       0       0       0       0       0       
      +0       0       0
  1025 ;;      Totals:         1       0       0       0       0       0       0       0       0       0       0       0       
      +0       0       0
  1026 ;;Total ram usage:        1 bytes
  1027 ;; Hardware stack levels used: 1
  1028 ;; Hardware stack levels required when called: 4
  1029 ;; This function calls:
  1030 ;;		_I2C_2_Master_Init
  1031 ;;		_color_writetoaddr
  1032 ;; This function is called by:
  1033 ;;		_main
  1034 ;; This function uses a non-reentrant model
  1035 ;;
  1036                           
  1037                           	psect	text8
  1038   0010C8                     __ptext8:
  1039                           	callstack 0
  1040   0010C8                     _color_click_init:
  1041                           	callstack 26
  1042   0010C8                     
  1043                           ;color.c: 9:     I2C_2_Master_Init();
  1044   0010C8  EC7E  F008         	call	_I2C_2_Master_Init	;wreg free
  1045   0010CC                     
  1046                           ;color.c: 13:  color_writetoaddr(0x00, 0x01);
  1047   0010CC  0E01               	movlw	1
  1048   0010CE  6E03               	movwf	color_writetoaddr@value^0,c
  1049   0010D0  0E00               	movlw	0
  1050   0010D2  ECA7  F008         	call	_color_writetoaddr
  1051   0010D6                     
  1052                           ;color.c: 14:     _delay((unsigned long)((3)*(64000000/4000.0)));
  1053   0010D6  0E3F               	movlw	63
  1054   0010D8  6E05               	movwf	??_color_click_init^0,c
  1055   0010DA  0E55               	movlw	85
  1056   0010DC                     u197:
  1057   0010DC  2EE8               	decfsz	wreg,f,c
  1058   0010DE  D7FE               	bra	u197
  1059   0010E0  2E05               	decfsz	??_color_click_init^0,f,c
  1060   0010E2  D7FC               	bra	u197
  1061   0010E4  0000               	nop	
  1062   0010E6                     
  1063                           ;color.c: 20:  color_writetoaddr(0x00, 0x03);
  1064   0010E6  0E03               	movlw	3
  1065   0010E8  6E03               	movwf	color_writetoaddr@value^0,c
  1066   0010EA  0E00               	movlw	0
  1067   0010EC  ECA7  F008         	call	_color_writetoaddr
  1068   0010F0                     
  1069                           ;color.c: 23:  color_writetoaddr(0x01, 0xD5);
  1070   0010F0  0ED5               	movlw	213
  1071   0010F2  6E03               	movwf	color_writetoaddr@value^0,c
  1072   0010F4  0E01               	movlw	1
  1073   0010F6  ECA7  F008         	call	_color_writetoaddr
  1074   0010FA  0012               	return		;funcret
  1075   0010FC                     __end_of_color_click_init:
  1076                           	callstack 0
  1077                           
  1078 ;; *************** function _color_writetoaddr *****************
  1079 ;; Defined at:
  1080 ;;		line 31 in file "color.c"
  1081 ;; Parameters:    Size  Location     Type
  1082 ;;  address         1    wreg     unsigned char 
  1083 ;;  value           1    2[COMRAM] unsigned char 
  1084 ;; Auto vars:     Size  Location     Type
  1085 ;;  address         1    3[COMRAM] unsigned char 
  1086 ;; Return value:  Size  Location     Type
  1087 ;;                  1    wreg      void 
  1088 ;; Registers used:
  1089 ;;		wreg, status,2, status,0, cstack
  1090 ;; Tracked objects:
  1091 ;;		On entry : 0/0
  1092 ;;		On exit  : 0/0
  1093 ;;		Unchanged: 0/0
  1094 ;; Data sizes:     COMRAM   BANK0   BANK1   BANK2   BANK3   BANK4   BANK5   BANK6   BANK7   BANK8   BANK9  BANK10  BANK1
      +1  BANK12  BANK13
  1095 ;;      Params:         1       0       0       0       0       0       0       0       0       0       0       0       
      +0       0       0
  1096 ;;      Locals:         1       0       0       0       0       0       0       0       0       0       0       0       
      +0       0       0
  1097 ;;      Temps:          0       0       0       0       0       0       0       0       0       0       0       0       
      +0       0       0
  1098 ;;      Totals:         2       0       0       0       0       0       0       0       0       0       0       0       
      +0       0       0
  1099 ;;Total ram usage:        2 bytes
  1100 ;; Hardware stack levels used: 1
  1101 ;; Hardware stack levels required when called: 3
  1102 ;; This function calls:
  1103 ;;		_I2C_2_Master_Start
  1104 ;;		_I2C_2_Master_Stop
  1105 ;;		_I2C_2_Master_Write
  1106 ;; This function is called by:
  1107 ;;		_color_click_init
  1108 ;; This function uses a non-reentrant model
  1109 ;;
  1110                           
  1111                           	psect	text9
  1112   00114E                     __ptext9:
  1113                           	callstack 0
  1114   00114E                     _color_writetoaddr:
  1115                           	callstack 26
  1116                           
  1117                           ;incstack = 0
  1118                           ;color_writetoaddr@address stored from wreg
  1119   00114E  6E04               	movwf	color_writetoaddr@address^0,c
  1120   001150                     
  1121                           ;color.c: 32:     I2C_2_Master_Start();
  1122   001150  ECD3  F008         	call	_I2C_2_Master_Start	;wreg free
  1123                           
  1124                           ;color.c: 33:     I2C_2_Master_Write(0x52 | 0x00);
  1125   001154  0E52               	movlw	82
  1126   001156  ECBE  F008         	call	_I2C_2_Master_Write
  1127                           
  1128                           ;color.c: 34:     I2C_2_Master_Write(0x80 | address);
  1129   00115A  5004               	movf	color_writetoaddr@address^0,w,c
  1130   00115C  0980               	iorlw	128
  1131   00115E  ECBE  F008         	call	_I2C_2_Master_Write
  1132                           
  1133                           ;color.c: 35:     I2C_2_Master_Write(value);
  1134   001162  5003               	movf	color_writetoaddr@value^0,w,c
  1135   001164  ECBE  F008         	call	_I2C_2_Master_Write
  1136                           
  1137                           ;color.c: 36:     I2C_2_Master_Stop();
  1138   001168  ECCE  F008         	call	_I2C_2_Master_Stop	;wreg free
  1139   00116C  0012               	return		;funcret
  1140   00116E                     __end_of_color_writetoaddr:
  1141                           	callstack 0
  1142                           
  1143 ;; *************** function _I2C_2_Master_Write *****************
  1144 ;; Defined at:
  1145 ;;		line 45 in file "i2c.c"
  1146 ;; Parameters:    Size  Location     Type
  1147 ;;  data_byte       1    wreg     unsigned char 
  1148 ;; Auto vars:     Size  Location     Type
  1149 ;;  data_byte       1    1[COMRAM] unsigned char 
  1150 ;; Return value:  Size  Location     Type
  1151 ;;                  1    wreg      void 
  1152 ;; Registers used:
  1153 ;;		wreg, status,2, status,0, cstack
  1154 ;; Tracked objects:
  1155 ;;		On entry : 0/0
  1156 ;;		On exit  : 0/0
  1157 ;;		Unchanged: 0/0
  1158 ;; Data sizes:     COMRAM   BANK0   BANK1   BANK2   BANK3   BANK4   BANK5   BANK6   BANK7   BANK8   BANK9  BANK10  BANK1
      +1  BANK12  BANK13
  1159 ;;      Params:         0       0       0       0       0       0       0       0       0       0       0       0       
      +0       0       0
  1160 ;;      Locals:         1       0       0       0       0       0       0       0       0       0       0       0       
      +0       0       0
  1161 ;;      Temps:          0       0       0       0       0       0       0       0       0       0       0       0       
      +0       0       0
  1162 ;;      Totals:         1       0       0       0       0       0       0       0       0       0       0       0       
      +0       0       0
  1163 ;;Total ram usage:        1 bytes
  1164 ;; Hardware stack levels used: 1
  1165 ;; Hardware stack levels required when called: 2
  1166 ;; This function calls:
  1167 ;;		_I2C_2_Master_Idle
  1168 ;; This function is called by:
  1169 ;;		_color_writetoaddr
  1170 ;;		_readRedColor
  1171 ;;		_readGreenColor
  1172 ;;		_readBlueColor
  1173 ;;		_readClearColor
  1174 ;; This function uses a non-reentrant model
  1175 ;;
  1176                           
  1177                           	psect	text10
  1178   00117C                     __ptext10:
  1179                           	callstack 0
  1180   00117C                     _I2C_2_Master_Write:
  1181                           	callstack 27
  1182                           
  1183                           ;incstack = 0
  1184                           ;I2C_2_Master_Write@data_byte stored from wreg
  1185   00117C  6E02               	movwf	I2C_2_Master_Write@data_byte^0,c
  1186   00117E                     
  1187                           ;i2c.c: 45: void I2C_2_Master_Write(unsigned char data_byte);i2c.c: 46: {;i2c.c: 47:   I
      +                          2C_2_Master_Idle();
  1188   00117E  EC93  F008         	call	_I2C_2_Master_Idle	;wreg free
  1189   001182                     
  1190                           ;i2c.c: 48:   SSP2BUF = data_byte;
  1191   001182  C002  FED5         	movff	I2C_2_Master_Write@data_byte,3797	;volatile
  1192   001186  0012               	return		;funcret
  1193   001188                     __end_of_I2C_2_Master_Write:
  1194                           	callstack 0
  1195                           
  1196 ;; *************** function _I2C_2_Master_Stop *****************
  1197 ;; Defined at:
  1198 ;;		line 39 in file "i2c.c"
  1199 ;; Parameters:    Size  Location     Type
  1200 ;;		None
  1201 ;; Auto vars:     Size  Location     Type
  1202 ;;		None
  1203 ;; Return value:  Size  Location     Type
  1204 ;;                  1    wreg      void 
  1205 ;; Registers used:
  1206 ;;		wreg, status,2, status,0, cstack
  1207 ;; Tracked objects:
  1208 ;;		On entry : 0/0
  1209 ;;		On exit  : 0/0
  1210 ;;		Unchanged: 0/0
  1211 ;; Data sizes:     COMRAM   BANK0   BANK1   BANK2   BANK3   BANK4   BANK5   BANK6   BANK7   BANK8   BANK9  BANK10  BANK1
      +1  BANK12  BANK13
  1212 ;;      Params:         0       0       0       0       0       0       0       0       0       0       0       0       
      +0       0       0
  1213 ;;      Locals:         0       0       0       0       0       0       0       0       0       0       0       0       
      +0       0       0
  1214 ;;      Temps:          0       0       0       0       0       0       0       0       0       0       0       0       
      +0       0       0
  1215 ;;      Totals:         0       0       0       0       0       0       0       0       0       0       0       0       
      +0       0       0
  1216 ;;Total ram usage:        0 bytes
  1217 ;; Hardware stack levels used: 1
  1218 ;; Hardware stack levels required when called: 2
  1219 ;; This function calls:
  1220 ;;		_I2C_2_Master_Idle
  1221 ;; This function is called by:
  1222 ;;		_color_writetoaddr
  1223 ;;		_readRedColor
  1224 ;;		_readGreenColor
  1225 ;;		_readBlueColor
  1226 ;;		_readClearColor
  1227 ;; This function uses a non-reentrant model
  1228 ;;
  1229                           
  1230                           	psect	text11
  1231   00119C                     __ptext11:
  1232                           	callstack 0
  1233   00119C                     _I2C_2_Master_Stop:
  1234                           	callstack 27
  1235   00119C                     
  1236                           ;i2c.c: 41:   I2C_2_Master_Idle();
  1237   00119C  EC93  F008         	call	_I2C_2_Master_Idle	;wreg free
  1238   0011A0                     
  1239                           ;i2c.c: 42:   SSP2CON2bits.PEN = 1;
  1240   0011A0  010E               	movlb	14	; () banked
  1241   0011A2  85DA               	bsf	218,2,b	;volatile
  1242   0011A4                     
  1243                           ; BSR set to: 14
  1244   0011A4  0012               	return		;funcret
  1245   0011A6                     __end_of_I2C_2_Master_Stop:
  1246                           	callstack 0
  1247                           
  1248 ;; *************** function _I2C_2_Master_Start *****************
  1249 ;; Defined at:
  1250 ;;		line 27 in file "i2c.c"
  1251 ;; Parameters:    Size  Location     Type
  1252 ;;		None
  1253 ;; Auto vars:     Size  Location     Type
  1254 ;;		None
  1255 ;; Return value:  Size  Location     Type
  1256 ;;                  1    wreg      void 
  1257 ;; Registers used:
  1258 ;;		wreg, status,2, status,0, cstack
  1259 ;; Tracked objects:
  1260 ;;		On entry : 0/0
  1261 ;;		On exit  : 0/0
  1262 ;;		Unchanged: 0/0
  1263 ;; Data sizes:     COMRAM   BANK0   BANK1   BANK2   BANK3   BANK4   BANK5   BANK6   BANK7   BANK8   BANK9  BANK10  BANK1
      +1  BANK12  BANK13
  1264 ;;      Params:         0       0       0       0       0       0       0       0       0       0       0       0       
      +0       0       0
  1265 ;;      Locals:         0       0       0       0       0       0       0       0       0       0       0       0       
      +0       0       0
  1266 ;;      Temps:          0       0       0       0       0       0       0       0       0       0       0       0       
      +0       0       0
  1267 ;;      Totals:         0       0       0       0       0       0       0       0       0       0       0       0       
      +0       0       0
  1268 ;;Total ram usage:        0 bytes
  1269 ;; Hardware stack levels used: 1
  1270 ;; Hardware stack levels required when called: 2
  1271 ;; This function calls:
  1272 ;;		_I2C_2_Master_Idle
  1273 ;; This function is called by:
  1274 ;;		_color_writetoaddr
  1275 ;;		_readRedColor
  1276 ;;		_readGreenColor
  1277 ;;		_readBlueColor
  1278 ;;		_readClearColor
  1279 ;; This function uses a non-reentrant model
  1280 ;;
  1281                           
  1282                           	psect	text12
  1283   0011A6                     __ptext12:
  1284                           	callstack 0
  1285   0011A6                     _I2C_2_Master_Start:
  1286                           	callstack 27
  1287   0011A6                     
  1288                           ;i2c.c: 29:   I2C_2_Master_Idle();
  1289   0011A6  EC93  F008         	call	_I2C_2_Master_Idle	;wreg free
  1290   0011AA                     
  1291                           ;i2c.c: 30:   SSP2CON2bits.SEN = 1;
  1292   0011AA  010E               	movlb	14	; () banked
  1293   0011AC  81DA               	bsf	218,0,b	;volatile
  1294   0011AE                     
  1295                           ; BSR set to: 14
  1296   0011AE  0012               	return		;funcret
  1297   0011B0                     __end_of_I2C_2_Master_Start:
  1298                           	callstack 0
  1299                           
  1300 ;; *************** function _I2C_2_Master_Idle *****************
  1301 ;; Defined at:
  1302 ;;		line 22 in file "i2c.c"
  1303 ;; Parameters:    Size  Location     Type
  1304 ;;		None
  1305 ;; Auto vars:     Size  Location     Type
  1306 ;;		None
  1307 ;; Return value:  Size  Location     Type
  1308 ;;                  1    wreg      void 
  1309 ;; Registers used:
  1310 ;;		wreg, status,2, status,0
  1311 ;; Tracked objects:
  1312 ;;		On entry : 0/0
  1313 ;;		On exit  : 0/0
  1314 ;;		Unchanged: 0/0
  1315 ;; Data sizes:     COMRAM   BANK0   BANK1   BANK2   BANK3   BANK4   BANK5   BANK6   BANK7   BANK8   BANK9  BANK10  BANK1
      +1  BANK12  BANK13
  1316 ;;      Params:         0       0       0       0       0       0       0       0       0       0       0       0       
      +0       0       0
  1317 ;;      Locals:         0       0       0       0       0       0       0       0       0       0       0       0       
      +0       0       0
  1318 ;;      Temps:          1       0       0       0       0       0       0       0       0       0       0       0       
      +0       0       0
  1319 ;;      Totals:         1       0       0       0       0       0       0       0       0       0       0       0       
      +0       0       0
  1320 ;;Total ram usage:        1 bytes
  1321 ;; Hardware stack levels used: 1
  1322 ;; Hardware stack levels required when called: 1
  1323 ;; This function calls:
  1324 ;;		Nothing
  1325 ;; This function is called by:
  1326 ;;		_I2C_2_Master_Start
  1327 ;;		_I2C_2_Master_RepStart
  1328 ;;		_I2C_2_Master_Stop
  1329 ;;		_I2C_2_Master_Write
  1330 ;;		_I2C_2_Master_Read
  1331 ;; This function uses a non-reentrant model
  1332 ;;
  1333                           
  1334                           	psect	text13
  1335   001126                     __ptext13:
  1336                           	callstack 0
  1337   001126                     _I2C_2_Master_Idle:
  1338                           	callstack 27
  1339   001126                     l64:
  1340   001126  010E               	movlb	14	; () banked
  1341   001128  B5D8               	btfsc	216,2,b	;volatile
  1342   00112A  EF99  F008         	goto	u11
  1343   00112E  EF9B  F008         	goto	u10
  1344   001132                     u11:
  1345   001132  EF93  F008         	goto	l64
  1346   001136                     u10:
  1347   001136                     
  1348                           ; BSR set to: 14
  1349   001136  CEDA F001          	movff	3802,??_I2C_2_Master_Idle	;volatile
  1350   00113A  0E1F               	movlw	31
  1351   00113C  1601               	andwf	??_I2C_2_Master_Idle^0,f,c
  1352   00113E  A4D8               	btfss	status,2,c
  1353   001140  EFA4  F008         	goto	u21
  1354   001144  EFA6  F008         	goto	u20
  1355   001148                     u21:
  1356   001148  EF93  F008         	goto	l64
  1357   00114C                     u20:
  1358   00114C                     
  1359                           ; BSR set to: 14
  1360   00114C  0012               	return		;funcret
  1361   00114E                     __end_of_I2C_2_Master_Idle:
  1362                           	callstack 0
  1363                           
  1364 ;; *************** function _I2C_2_Master_Init *****************
  1365 ;; Defined at:
  1366 ;;		line 4 in file "i2c.c"
  1367 ;; Parameters:    Size  Location     Type
  1368 ;;		None
  1369 ;; Auto vars:     Size  Location     Type
  1370 ;;		None
  1371 ;; Return value:  Size  Location     Type
  1372 ;;                  1    wreg      void 
  1373 ;; Registers used:
  1374 ;;		wreg, status,2
  1375 ;; Tracked objects:
  1376 ;;		On entry : 0/0
  1377 ;;		On exit  : 0/0
  1378 ;;		Unchanged: 0/0
  1379 ;; Data sizes:     COMRAM   BANK0   BANK1   BANK2   BANK3   BANK4   BANK5   BANK6   BANK7   BANK8   BANK9  BANK10  BANK1
      +1  BANK12  BANK13
  1380 ;;      Params:         0       0       0       0       0       0       0       0       0       0       0       0       
      +0       0       0
  1381 ;;      Locals:         0       0       0       0       0       0       0       0       0       0       0       0       
      +0       0       0
  1382 ;;      Temps:          0       0       0       0       0       0       0       0       0       0       0       0       
      +0       0       0
  1383 ;;      Totals:         0       0       0       0       0       0       0       0       0       0       0       0       
      +0       0       0
  1384 ;;Total ram usage:        0 bytes
  1385 ;; Hardware stack levels used: 1
  1386 ;; Hardware stack levels required when called: 1
  1387 ;; This function calls:
  1388 ;;		Nothing
  1389 ;; This function is called by:
  1390 ;;		_color_click_init
  1391 ;; This function uses a non-reentrant model
  1392 ;;
  1393                           
  1394                           	psect	text14
  1395   0010FC                     __ptext14:
  1396                           	callstack 0
  1397   0010FC                     _I2C_2_Master_Init:
  1398                           	callstack 28
  1399   0010FC                     
  1400                           ;i2c.c: 7:   SSP2CON1bits.SSPM= 0b1000;
  1401   0010FC  010E               	movlb	14	; () banked
  1402   0010FE  51D9               	movf	217,w,b	;volatile
  1403   001100  0BF0               	andlw	-16
  1404   001102  0908               	iorlw	8
  1405   001104  6FD9               	movwf	217,b	;volatile
  1406   001106                     
  1407                           ; BSR set to: 14
  1408                           ;i2c.c: 8:   SSP2CON1bits.SSPEN = 1;
  1409   001106  8BD9               	bsf	217,5,b	;volatile
  1410                           
  1411                           ;i2c.c: 9:   SSP2ADD = (64000000/(4*100000))-1;
  1412   001108  0E9F               	movlw	159
  1413   00110A  6FD6               	movwf	214,b	;volatile
  1414   00110C                     
  1415                           ; BSR set to: 14
  1416                           ;i2c.c: 12:   TRISDbits.TRISD5 = 1;
  1417   00110C  8A84               	bsf	132,5,c	;volatile
  1418   00110E                     
  1419                           ; BSR set to: 14
  1420                           ;i2c.c: 13:   TRISDbits.TRISD6 = 1;
  1421   00110E  8C84               	bsf	132,6,c	;volatile
  1422   001110                     
  1423                           ; BSR set to: 14
  1424                           ;i2c.c: 14:   ANSELDbits.ANSELD5=0;
  1425   001110  9BA7               	bcf	167,5,b	;volatile
  1426   001112                     
  1427                           ; BSR set to: 14
  1428                           ;i2c.c: 15:   ANSELDbits.ANSELD6=0;
  1429   001112  9DA7               	bcf	167,6,b	;volatile
  1430                           
  1431                           ;i2c.c: 16:   SSP2DATPPS=0x1D;
  1432   001114  0E1D               	movlw	29
  1433   001116  6F1D               	movwf	29,b	;volatile
  1434                           
  1435                           ;i2c.c: 17:   SSP2CLKPPS=0x1E;
  1436   001118  0E1E               	movlw	30
  1437   00111A  6F1C               	movwf	28,b	;volatile
  1438                           
  1439                           ;i2c.c: 18:   RD5PPS=0x1C;
  1440   00111C  0E1C               	movlw	28
  1441   00111E  6F6F               	movwf	111,b	;volatile
  1442                           
  1443                           ;i2c.c: 19:   RD6PPS=0x1B;
  1444   001120  0E1B               	movlw	27
  1445   001122  6F70               	movwf	112,b	;volatile
  1446   001124                     
  1447                           ; BSR set to: 14
  1448   001124  0012               	return		;funcret
  1449   001126                     __end_of_I2C_2_Master_Init:
  1450                           	callstack 0
  1451                           
  1452 ;; *************** function _LEDturnON *****************
  1453 ;; Defined at:
  1454 ;;		line 20 in file "interact.c"
  1455 ;; Parameters:    Size  Location     Type
  1456 ;;		None
  1457 ;; Auto vars:     Size  Location     Type
  1458 ;;		None
  1459 ;; Return value:  Size  Location     Type
  1460 ;;                  1    wreg      void 
  1461 ;; Registers used:
  1462 ;;		None
  1463 ;; Tracked objects:
  1464 ;;		On entry : 0/0
  1465 ;;		On exit  : 0/0
  1466 ;;		Unchanged: 0/0
  1467 ;; Data sizes:     COMRAM   BANK0   BANK1   BANK2   BANK3   BANK4   BANK5   BANK6   BANK7   BANK8   BANK9  BANK10  BANK1
      +1  BANK12  BANK13
  1468 ;;      Params:         0       0       0       0       0       0       0       0       0       0       0       0       
      +0       0       0
  1469 ;;      Locals:         0       0       0       0       0       0       0       0       0       0       0       0       
      +0       0       0
  1470 ;;      Temps:          0       0       0       0       0       0       0       0       0       0       0       0       
      +0       0       0
  1471 ;;      Totals:         0       0       0       0       0       0       0       0       0       0       0       0       
      +0       0       0
  1472 ;;Total ram usage:        0 bytes
  1473 ;; Hardware stack levels used: 1
  1474 ;; Hardware stack levels required when called: 1
  1475 ;; This function calls:
  1476 ;;		Nothing
  1477 ;; This function is called by:
  1478 ;;		_main
  1479 ;; This function uses a non-reentrant model
  1480 ;;
  1481                           
  1482                           	psect	text15
  1483   0011B0                     __ptext15:
  1484                           	callstack 0
  1485   0011B0                     _LEDturnON:
  1486                           	callstack 29
  1487   0011B0                     
  1488                           ;interact.c: 21:     LATGbits.LATG0 = 1;
  1489   0011B0  807F               	bsf	127,0,c	;volatile
  1490                           
  1491                           ;interact.c: 22:     LATEbits.LATE7 = 1;
  1492   0011B2  8E7D               	bsf	125,7,c	;volatile
  1493                           
  1494                           ;interact.c: 23:     LATAbits.LATA3 = 1;
  1495   0011B4  8679               	bsf	121,3,c	;volatile
  1496   0011B6  0012               	return		;funcret
  1497   0011B8                     __end_of_LEDturnON:
  1498                           	callstack 0
  1499                           
  1500 ;; *************** function _LEDturnOFF *****************
  1501 ;; Defined at:
  1502 ;;		line 26 in file "interact.c"
  1503 ;; Parameters:    Size  Location     Type
  1504 ;;		None
  1505 ;; Auto vars:     Size  Location     Type
  1506 ;;		None
  1507 ;; Return value:  Size  Location     Type
  1508 ;;                  1    wreg      void 
  1509 ;; Registers used:
  1510 ;;		None
  1511 ;; Tracked objects:
  1512 ;;		On entry : 0/0
  1513 ;;		On exit  : 0/0
  1514 ;;		Unchanged: 0/0
  1515 ;; Data sizes:     COMRAM   BANK0   BANK1   BANK2   BANK3   BANK4   BANK5   BANK6   BANK7   BANK8   BANK9  BANK10  BANK1
      +1  BANK12  BANK13
  1516 ;;      Params:         0       0       0       0       0       0       0       0       0       0       0       0       
      +0       0       0
  1517 ;;      Locals:         0       0       0       0       0       0       0       0       0       0       0       0       
      +0       0       0
  1518 ;;      Temps:          0       0       0       0       0       0       0       0       0       0       0       0       
      +0       0       0
  1519 ;;      Totals:         0       0       0       0       0       0       0       0       0       0       0       0       
      +0       0       0
  1520 ;;Total ram usage:        0 bytes
  1521 ;; Hardware stack levels used: 1
  1522 ;; Hardware stack levels required when called: 1
  1523 ;; This function calls:
  1524 ;;		Nothing
  1525 ;; This function is called by:
  1526 ;;		_main
  1527 ;; This function uses a non-reentrant model
  1528 ;;
  1529                           
  1530                           	psect	text16
  1531   0011B8                     __ptext16:
  1532                           	callstack 0
  1533   0011B8                     _LEDturnOFF:
  1534                           	callstack 29
  1535   0011B8                     
  1536                           ;interact.c: 27:     LATGbits.LATG0 = 0;
  1537   0011B8  907F               	bcf	127,0,c	;volatile
  1538                           
  1539                           ;interact.c: 28:     LATEbits.LATE7 = 0;
  1540   0011BA  9E7D               	bcf	125,7,c	;volatile
  1541                           
  1542                           ;interact.c: 29:     LATAbits.LATA3 = 0;
  1543   0011BC  9679               	bcf	121,3,c	;volatile
  1544   0011BE  0012               	return		;funcret
  1545   0011C0                     __end_of_LEDturnOFF:
  1546                           	callstack 0
  1547                           
  1548 ;; *************** function _wall_detected *****************
  1549 ;; Defined at:
  1550 ;;		line 36 in file "interrupts.c"
  1551 ;; Parameters:    Size  Location     Type
  1552 ;;		None
  1553 ;; Auto vars:     Size  Location     Type
  1554 ;;		None
  1555 ;; Return value:  Size  Location     Type
  1556 ;;                  1    wreg      void 
  1557 ;; Registers used:
  1558 ;;		None
  1559 ;; Tracked objects:
  1560 ;;		On entry : 0/0
  1561 ;;		On exit  : 0/0
  1562 ;;		Unchanged: 0/0
  1563 ;; Data sizes:     COMRAM   BANK0   BANK1   BANK2   BANK3   BANK4   BANK5   BANK6   BANK7   BANK8   BANK9  BANK10  BANK1
      +1  BANK12  BANK13
  1564 ;;      Params:         0       0       0       0       0       0       0       0       0       0       0       0       
      +0       0       0
  1565 ;;      Locals:         0       0       0       0       0       0       0       0       0       0       0       0       
      +0       0       0
  1566 ;;      Temps:          0       0       0       0       0       0       0       0       0       0       0       0       
      +0       0       0
  1567 ;;      Totals:         0       0       0       0       0       0       0       0       0       0       0       0       
      +0       0       0
  1568 ;;Total ram usage:        0 bytes
  1569 ;; Hardware stack levels used: 1
  1570 ;; This function calls:
  1571 ;;		Nothing
  1572 ;; This function is called by:
  1573 ;;		Interrupt level 2
  1574 ;; This function uses a non-reentrant model
  1575 ;;
  1576                           
  1577                           	psect	intcode
  1578   000008                     __pintcode:
  1579                           	callstack 0
  1580   000008                     _wall_detected:
  1581                           	callstack 26
  1582                           
  1583                           ;incstack = 0
  1584   000008  8216               	bsf	int$flags,1,c	;set compiler interrupt flag (level 2)
  1585   00000A  9216               	bcf	int$flags,1,c	;clear compiler interrupt flag (level 2)
  1586   00000C  0011               	retfie		f
  1587   00000E                     __end_of_wall_detected:
  1588                           	callstack 0
  1589                           
  1590                           	psect	smallconst
  1591   000E00                     __psmallconst:
  1592                           	callstack 0
  1593   000E00  00                 	db	0
  1594   000E01  00                 	db	0	; dummy byte at the end
  1595   000000                     
  1596                           	psect	rparam
  1597   000000                     
  1598                           	psect	temp
  1599   000016                     btemp:
  1600                           	callstack 0
  1601   000016                     	ds	1
  1602   000000                     int$flags	set	btemp
  1603   000000                     wtemp8	set	btemp+1
  1604   000000                     ttemp5	set	btemp+1
  1605   000000                     ttemp6	set	btemp+4
  1606   000000                     ttemp7	set	btemp+8
  1607                           
  1608                           	psect	config
  1609                           
  1610                           ;Config register CONFIG1L @ 0x300000
  1611                           ;	External Oscillator mode Selection bits
  1612                           ;	FEXTOSC = HS, HS (crystal oscillator) above 8 MHz; PFM set to high power
  1613                           ;	Power-up default value for COSC bits
  1614                           ;	RSTOSC = EXTOSC_4PLL, EXTOSC with 4x PLL, with EXTOSC operating per FEXTOSC bits
  1615   300000                     	org	3145728
  1616   300000  AA                 	db	170
  1617                           
  1618                           ;Config register CONFIG1H @ 0x300001
  1619                           ;	unspecified, using default values
  1620                           ;	Clock Out Enable bit
  1621                           ;	CLKOUTEN = 0x1, unprogrammed default
  1622                           ;	Clock Switch Enable bit
  1623                           ;	CSWEN = 0x1, unprogrammed default
  1624                           ;	Fail-Safe Clock Monitor Enable bit
  1625                           ;	FCMEN = 0x1, unprogrammed default
  1626   300001                     	org	3145729
  1627   300001  FF                 	db	255
  1628                           
  1629                           ;Config register CONFIG3L @ 0x300004
  1630                           ;	WDT Period Select bits
  1631                           ;	WDTCPS = WDTCPS_31, Divider ratio 1:65536; software control of WDTPS
  1632                           ;	WDT operating mode
  1633                           ;	WDTE = OFF, WDT Disabled
  1634   300004                     	org	3145732
  1635   300004  9F                 	db	159
  1636                           
  1637                           ;Config register CONFIG3H @ 0x300005
  1638                           ;	unspecified, using default values
  1639                           ;	WDT Window Select bits
  1640                           ;	WDTCWS = 0x7, unprogrammed default
  1641                           ;	WDT input clock selector
  1642                           ;	WDTCCS = 0x7, unprogrammed default
  1643   300005                     	org	3145733
  1644   300005  FF                 	db	255
  1645                           tosu	equ	0xFFF
  1646                           tosh	equ	0xFFE
  1647                           tosl	equ	0xFFD
  1648                           stkptr	equ	0xFFC
  1649                           pclatu	equ	0xFFB
  1650                           pclath	equ	0xFFA
  1651                           pcl	equ	0xFF9
  1652                           tblptru	equ	0xFF8
  1653                           tblptrh	equ	0xFF7
  1654                           tblptrl	equ	0xFF6
  1655                           tablat	equ	0xFF5
  1656                           prodh	equ	0xFF4
  1657                           prodl	equ	0xFF3
  1658                           indf0	equ	0xFEF
  1659                           postinc0	equ	0xFEE
  1660                           postdec0	equ	0xFED
  1661                           preinc0	equ	0xFEC
  1662                           plusw0	equ	0xFEB
  1663                           fsr0h	equ	0xFEA
  1664                           fsr0l	equ	0xFE9
  1665                           wreg	equ	0xFE8
  1666                           indf1	equ	0xFE7
  1667                           postinc1	equ	0xFE6
  1668                           postdec1	equ	0xFE5
  1669                           preinc1	equ	0xFE4
  1670                           plusw1	equ	0xFE3
  1671                           fsr1h	equ	0xFE2
  1672                           fsr1l	equ	0xFE1
  1673                           bsr	equ	0xFE0
  1674                           indf2	equ	0xFDF
  1675                           postinc2	equ	0xFDE
  1676                           postdec2	equ	0xFDD
  1677                           preinc2	equ	0xFDC
  1678                           plusw2	equ	0xFDB
  1679                           fsr2h	equ	0xFDA
  1680                           fsr2l	equ	0xFD9
  1681                           status	equ	0xFD8

Data Sizes:
    Strings     0
    Constant    0
    Data        0
    BSS         0
    Persistent  0
    Stack       0

Auto Spaces:
    Space          Size  Autos    Used
    COMRAM           94     21      21
    BANK0           160      0       0
    BANK1           256      0       0
    BANK2           256      0       0
    BANK3           256      0       0
    BANK4           256      0       0
    BANK5           256      0       0
    BANK6           256      0       0
    BANK7           256      0       0
    BANK8           256      0       0
    BANK9           256      0       0
    BANK10          256      0       0
    BANK11          256      0       0
    BANK12          256      0       0
    BANK13          234      0       0

Pointer List with Targets:

    None.

Critical Paths under _main in COMRAM

    _main->_readBlueColor
    _main->_readClearColor
    _main->_readGreenColor
    _main->_readRedColor
    _readRedColor->_I2C_2_Master_Read
    _readGreenColor->_I2C_2_Master_Read
    _readClearColor->_I2C_2_Master_Read
    _readBlueColor->_I2C_2_Master_Read
    _I2C_2_Master_RepStart->_I2C_2_Master_Idle
    _I2C_2_Master_Read->_I2C_2_Master_Idle
    _color_click_init->_color_writetoaddr
    _color_writetoaddr->_I2C_2_Master_Write
    _I2C_2_Master_Write->_I2C_2_Master_Idle
    _I2C_2_Master_Stop->_I2C_2_Master_Idle
    _I2C_2_Master_Start->_I2C_2_Master_Idle

Critical Paths under _wall_detected in COMRAM

    None.

Critical Paths under _main in BANK0

    None.

Critical Paths under _wall_detected in BANK0

    None.

Critical Paths under _main in BANK1

    None.

Critical Paths under _wall_detected in BANK1

    None.

Critical Paths under _main in BANK2

    None.

Critical Paths under _wall_detected in BANK2

    None.

Critical Paths under _main in BANK3

    None.

Critical Paths under _wall_detected in BANK3

    None.

Critical Paths under _main in BANK4

    None.

Critical Paths under _wall_detected in BANK4

    None.

Critical Paths under _main in BANK5

    None.

Critical Paths under _wall_detected in BANK5

    None.

Critical Paths under _main in BANK6

    None.

Critical Paths under _wall_detected in BANK6

    None.

Critical Paths under _main in BANK7

    None.

Critical Paths under _wall_detected in BANK7

    None.

Critical Paths under _main in BANK8

    None.

Critical Paths under _wall_detected in BANK8

    None.

Critical Paths under _main in BANK9

    None.

Critical Paths under _wall_detected in BANK9

    None.

Critical Paths under _main in BANK10

    None.

Critical Paths under _wall_detected in BANK10

    None.

Critical Paths under _main in BANK11

    None.

Critical Paths under _wall_detected in BANK11

    None.

Critical Paths under _main in BANK12

    None.

Critical Paths under _wall_detected in BANK12

    None.

Critical Paths under _main in BANK13

    None.

Critical Paths under _wall_detected in BANK13

    None.

Call Graph Tables:

 ---------------------------------------------------------------------------------
 (Depth) Function   	        Calls       Base Space   Used Autos Params    Refs
 ---------------------------------------------------------------------------------
 (0) _main                                                10    10      0     743
                                             11 COMRAM    10    10      0
                         _LEDturnOFF
                          _LEDturnON
                   _color_click_init
                   _init_buttons_LED
                      _readBlueColor
                     _readClearColor
                     _readGreenColor
                       _readRedColor
 ---------------------------------------------------------------------------------
 (1) _readRedColor                                         7     5      2      91
                                              4 COMRAM     7     5      2
                  _I2C_2_Master_Read
              _I2C_2_Master_RepStart
                 _I2C_2_Master_Start
                  _I2C_2_Master_Stop
                 _I2C_2_Master_Write
 ---------------------------------------------------------------------------------
 (1) _readGreenColor                                       7     5      2      91
                                              4 COMRAM     7     5      2
                  _I2C_2_Master_Read
              _I2C_2_Master_RepStart
                 _I2C_2_Master_Start
                  _I2C_2_Master_Stop
                 _I2C_2_Master_Write
 ---------------------------------------------------------------------------------
 (1) _readClearColor                                       7     5      2      91
                                              4 COMRAM     7     5      2
                  _I2C_2_Master_Read
              _I2C_2_Master_RepStart
                 _I2C_2_Master_Start
                  _I2C_2_Master_Stop
                 _I2C_2_Master_Write
 ---------------------------------------------------------------------------------
 (1) _readBlueColor                                        7     5      2      91
                                              4 COMRAM     7     5      2
                  _I2C_2_Master_Read
              _I2C_2_Master_RepStart
                 _I2C_2_Master_Start
                  _I2C_2_Master_Stop
                 _I2C_2_Master_Write
 ---------------------------------------------------------------------------------
 (2) _I2C_2_Master_RepStart                                0     0      0       0
                  _I2C_2_Master_Idle
 ---------------------------------------------------------------------------------
 (2) _I2C_2_Master_Read                                    3     3      0      30
                                              1 COMRAM     3     3      0
                  _I2C_2_Master_Idle
 ---------------------------------------------------------------------------------
 (1) _init_buttons_LED                                     0     0      0       0
 ---------------------------------------------------------------------------------
 (1) _color_click_init                                     1     1      0     287
                                              4 COMRAM     1     1      0
                  _I2C_2_Master_Init
                  _color_writetoaddr
 ---------------------------------------------------------------------------------
 (2) _color_writetoaddr                                    2     1      1     287
                                              2 COMRAM     2     1      1
                 _I2C_2_Master_Start
                  _I2C_2_Master_Stop
                 _I2C_2_Master_Write
 ---------------------------------------------------------------------------------
 (2) _I2C_2_Master_Write                                   1     1      0      15
                                              1 COMRAM     1     1      0
                  _I2C_2_Master_Idle
 ---------------------------------------------------------------------------------
 (2) _I2C_2_Master_Stop                                    0     0      0       0
                  _I2C_2_Master_Idle
 ---------------------------------------------------------------------------------
 (2) _I2C_2_Master_Start                                   0     0      0       0
                  _I2C_2_Master_Idle
 ---------------------------------------------------------------------------------
 (3) _I2C_2_Master_Idle                                    1     1      0       0
                                              0 COMRAM     1     1      0
 ---------------------------------------------------------------------------------
 (2) _I2C_2_Master_Init                                    0     0      0       0
 ---------------------------------------------------------------------------------
 (1) _LEDturnON                                            0     0      0       0
 ---------------------------------------------------------------------------------
 (1) _LEDturnOFF                                           0     0      0       0
 ---------------------------------------------------------------------------------
 Estimated maximum stack depth 3
 ---------------------------------------------------------------------------------
 (Depth) Function   	        Calls       Base Space   Used Autos Params    Refs
 ---------------------------------------------------------------------------------
 (5) _wall_detected                                        0     0      0       0
 ---------------------------------------------------------------------------------
 Estimated maximum stack depth 5
 ---------------------------------------------------------------------------------

 Call Graph Graphs:

 _main (ROOT)
   _LEDturnOFF
   _LEDturnON
   _color_click_init
     _I2C_2_Master_Init
     _color_writetoaddr
       _I2C_2_Master_Start
         _I2C_2_Master_Idle
       _I2C_2_Master_Stop
         _I2C_2_Master_Idle
       _I2C_2_Master_Write
         _I2C_2_Master_Idle
   _init_buttons_LED
   _readBlueColor
     _I2C_2_Master_Read
       _I2C_2_Master_Idle
     _I2C_2_Master_RepStart
       _I2C_2_Master_Idle
     _I2C_2_Master_Start
     _I2C_2_Master_Stop
     _I2C_2_Master_Write
   _readClearColor
     _I2C_2_Master_Read
     _I2C_2_Master_RepStart
     _I2C_2_Master_Start
     _I2C_2_Master_Stop
     _I2C_2_Master_Write
   _readGreenColor
     _I2C_2_Master_Read
     _I2C_2_Master_RepStart
     _I2C_2_Master_Start
     _I2C_2_Master_Stop
     _I2C_2_Master_Write
   _readRedColor
     _I2C_2_Master_Read
     _I2C_2_Master_RepStart
     _I2C_2_Master_Start
     _I2C_2_Master_Stop
     _I2C_2_Master_Write

 _wall_detected (ROOT)

 Address spaces:
Name               Size   Autos  Total    Cost      Usage
BITCOMRAM           5E      0       0       0        0.0%
EEDATA             400      0       0       0        0.0%
NULL                 0      0       0       0        0.0%
CODE                 0      0       0       0        0.0%
COMRAM              5E     15      15       1       22.3%
STACK                0      0       0       2        0.0%
DATA                 0      0       0       3        0.0%
BITBANK0            A0      0       0       4        0.0%
BANK0               A0      0       0       5        0.0%
BITBANK1           100      0       0       6        0.0%
BANK1              100      0       0       7        0.0%
BITBANK2           100      0       0       8        0.0%
BANK2              100      0       0       9        0.0%
BITBANK3           100      0       0      10        0.0%
BANK3              100      0       0      11        0.0%
BITBANK4           100      0       0      12        0.0%
BANK4              100      0       0      13        0.0%
BITBANK5           100      0       0      14        0.0%
BANK5              100      0       0      15        0.0%
BITBANK6           100      0       0      16        0.0%
BANK6              100      0       0      17        0.0%
BITBANK7           100      0       0      18        0.0%
BANK7              100      0       0      19        0.0%
BITBANK8           100      0       0      20        0.0%
BANK8              100      0       0      21        0.0%
BITBANK9           100      0       0      22        0.0%
BANK9              100      0       0      23        0.0%
BITBANK10          100      0       0      24        0.0%
BANK10             100      0       0      25        0.0%
BITBANK11          100      0       0      26        0.0%
BANK11             100      0       0      27        0.0%
BITBANK12          100      0       0      28        0.0%
BANK12             100      0       0      29        0.0%
BITBANK13           EA      0       0      30        0.0%
BANK13              EA      0       0      31        0.0%
BITBIGSFRhhhh        D      0       0      32        0.0%
BITBIGSFRhhhl       6A      0       0      33        0.0%
BITBIGSFRhhl         1      0       0      34        0.0%
BITBIGSFRhlhh        2      0       0      35        0.0%
BITBIGSFRhlhlh       1      0       0      36        0.0%
BITBIGSFRhlhll       1      0       0      37        0.0%
BITBIGSFRhllh        2      0       0      38        0.0%
BITBIGSFRhlll       9E      0       0      39        0.0%
BITBIGSFRlh          1      0       0      40        0.0%
BITBIGSFRllh        2D      0       0      41        0.0%
BITBIGSFRlllhh      36      0       0      42        0.0%
BITBIGSFRlllhl      51      0       0      43        0.0%
BITBIGSFRllll       2D      0       0      44        0.0%
ABS                  0      0       0      45        0.0%
BIGRAM             DE9      0       0      46        0.0%
BIGSFR               0      0       0     200        0.0%
BITSFR_3             0      0       0     200        0.0%
SFR_3                0      0       0     200        0.0%
BITSFR_2             0      0       0     200        0.0%
SFR_2                0      0       0     200        0.0%
BITSFR_1             0      0       0     200        0.0%
SFR_1                0      0       0     200        0.0%
BITSFR               0      0       0     200        0.0%
SFR                  0      0       0     200        0.0%


Microchip Technology PIC18 Macro Assembler V2.45 build 20230818022343 
Symbol Table                                                                                   Sat Feb 24 12:52:13 2024

           ??_init_buttons_LED 0001                             l22 116C                             l31 1084  
                           l25 0F94                             l34 1034                             l19 10FA  
                           l28 0FE4                             l61 1124                             l70 11AE  
                           l64 1126                             l73 119A                             l82 10C6  
                           l67 114C                             l76 11A4                             l79 1186  
                           u10 1136                             u11 1132                             u20 114C  
                           u21 1148                             u30 10B0                             u31 10A8  
                           u48 10B2                             u90 0E74                             u91 0E70  
                          l113 0F26                            l131 117A                            l134 11B6  
                          l137 11BE                            l823 1126                            l831 117E  
                          l841 1106                            l825 1136                            l833 1182  
                          l905 116E                            l907 11B0                            l843 110C  
                          l827 11A6                            l835 119C                            l909 11B8  
                          l845 110E                            l829 11AA                            l837 11A0  
                          l861 1094                            l853 1192                            l847 1110  
                          l839 10FC                            l863 109C                            l855 1196  
                          l849 1112                            l865 10C2                            l857 1088  
                          l971 10CC                            l867 10C4                            l859 108C  
                          l973 10D6                            l981 0F8C                            l967 1150  
                          l975 10E6                            l991 1036                            l977 10F0  
                          l969 10C8                            l993 107C                            l985 0F96  
                          l987 0FDC                            l979 0F46                            l997 0FE6  
                          l999 102C                            u100 0EA6                            u101 0EA2  
                          u110 0ED8                            u111 0ED4                            u120 0F0A  
                          u121 0F06                            u137 0E1C                            u147 0E80  
                          u157 0EB2                            u167 0EE4                            u177 0F16  
                          u187 0F30                            u197 10DC                            wreg 0FE8  
                         l1011 0E0E                           l1003 0E02                           l1021 0E4E  
                         l1013 0E12                           l1005 0E06                           l1031 0E8E  
                         l1023 0E5A                           l1015 0E2A                           l1007 0E0A  
                         l1041 0EC2                           l1033 0E90                           l1025 0E5E  
                         l1017 0E36                           l1009 0E0C                           l1051 0F0A  
                         l1043 0ED8                           l1035 0EA6                           l1027 0E74  
                         l1019 0E42                           l1053 0F0C                           l1045 0EDA  
                         l1037 0EA8                           l1029 0E76                           l1055 0F24  
                         l1047 0EF2                           l1039 0EC0                           l1049 0EF4  
                         _main 0E02                           btemp 0016                           start 000E  
                  ?_LEDturnOFF 0001                   ___param_bank 0000                          ?_main 0001  
                        i2l147 000A                readRedColor@tmp 000A     __end_of_I2C_2_Master_Start 11B0  
   __end_of_I2C_2_Master_Write 1188                          ttemp5 0017                          ttemp6 001A  
                        ttemp7 001E                          status 0FD8                          wtemp8 0017  
        _I2C_2_Master_RepStart 1192                __initialization 1188                   __end_of_main 0F46  
                       ??_main 000C                  __activetblptr 0000                  ?_readRedColor 0005  
                       _RD5PPS 0E6F                         _RD6PPS 0E70              __end_of_LEDturnON 11B8  
     __end_of_color_click_init 10FC              readGreenColor@tmp 000A              readClearColor@tmp 000A  
                       isa$std 0001                 ??_readRedColor 0007                  _readBlueColor 1036  
                 __mediumconst 0000                     __accesstop 0060        __end_of__initialization 1188  
       ?_I2C_2_Master_RepStart 0001                  ___rparam_used 0001                 __pcstackCOMRAM 0001  
               ?_readBlueColor 0005          __end_of_wall_detected 000E                   ??_LEDturnOFF 0001  
            _color_writetoaddr 114E             ?_color_writetoaddr 0003            ??_color_writetoaddr 0004  
           __end_of_LEDturnOFF 11C0                        _SSP2ADD 0ED6                        _SSP2BUF 0ED5  
       color_writetoaddr@value 0003      __end_of_color_writetoaddr 116E           __end_of_readRedColor 0F96  
           _I2C_2_Master_Start 11A6             _I2C_2_Master_Write 117C                        __Hparam 0000  
                      __Lparam 0000            ?_I2C_2_Master_Start 0001            ?_I2C_2_Master_Write 0001  
                 __psmallconst 0E00                ??_readBlueColor 0007                        __pcinit 1188  
                      __ramtop 0E00                        __ptext0 0E02                        __ptext1 0F46  
                      __ptext2 0F96                        __ptext3 0FE6                        __ptext4 1036  
                      __ptext5 1192                        __ptext6 1086                        __ptext7 116E  
                      __ptext8 10C8                        __ptext9 114E                 _readClearColor 0FE6  
                      main@red 000E           ??_I2C_2_Master_Start 0002           ??_I2C_2_Master_Write 0002  
         end_of_initialization 1188              ?_color_click_init 0001             ??_color_click_init 0005  
                    _LEDturnON 11B0         __end_of_readClearColor 1036                 _readGreenColor 0F96  
             _init_buttons_LED 116E                      _TRISAbits 0F81                      _TRISDbits 0F84  
                    _TRISEbits 0F85                      _TRISGbits 0F87       color_writetoaddr@address 0004  
      ??_I2C_2_Master_RepStart 0002                     ?_LEDturnON 0001         __end_of_readGreenColor 0FE6  
              ?_readClearColor 0005            start_initialization 1188                ?_readGreenColor 0005  
                 _readRedColor 0F46                    ??_LEDturnON 0001                      __pintcode 0008  
         I2C_2_Master_Read@ack 0003           I2C_2_Master_Read@tmp 0004                    __smallconst 0E00  
            _I2C_2_Master_Idle 1126              _I2C_2_Master_Init 10FC              _I2C_2_Master_Read 1086  
            _I2C_2_Master_Stop 119C             ?_I2C_2_Master_Idle 0001             ?_I2C_2_Master_Init 0001  
           ?_I2C_2_Master_Read 0001             ?_I2C_2_Master_Stop 0001            ??_I2C_2_Master_Idle 0001  
          ??_I2C_2_Master_Init 0001            ??_I2C_2_Master_Read 0002                       _LATAbits 0F79  
          ??_I2C_2_Master_Stop 0002                       _LATDbits 0F7C                       _LATEbits 0F7D  
                     _LATGbits 0F7F       __end_of_init_buttons_LED 117C               readBlueColor@tmp 000A  
                     _SSP2CON2 0EDA                       _SSP2STAT 0ED8      __end_of_I2C_2_Master_Idle 114E  
        __end_of_readBlueColor 1086      __end_of_I2C_2_Master_Init 1126      __end_of_I2C_2_Master_Read 10C8  
    __end_of_I2C_2_Master_Stop 11A6    I2C_2_Master_Write@data_byte 0002                      main@clear 0014  
                    main@green 0010                  _wall_detected 0008  __end_of_I2C_2_Master_RepStart 119C  
                     __Hrparam 0000                       __Lrparam 0000               ??_readClearColor 0007  
                   _ANSELDbits 0EA7                       __ptext10 117C                       __ptext11 119C  
                     __ptext12 11A6                       __ptext13 1126                       __ptext14 10FC  
                     __ptext15 11B0                       __ptext16 11B8                   _SSP2CON1bits 0ED9  
                 _SSP2CON2bits 0EDA                 ?_wall_detected 0001                       isa$xinst 0000  
             ??_readGreenColor 0007                       int$flags 0016                       main@blue 0012  
                   _INTCONbits 0FF2                       intlevel2 0000                     _LEDturnOFF 11B8  
             _color_click_init 10C8                     _SSP2DATPPS 0E1D                     _SSP2CLKPPS 0E1C  
              ??_wall_detected 0001              ?_init_buttons_LED 0001  
